   1              		.cpu cortex-m7
   2              		.arch armv7e-m
   3              		.fpu fpv5-d16
   4              		.eabi_attribute 28, 1
   5              		.eabi_attribute 20, 1
   6              		.eabi_attribute 21, 1
   7              		.eabi_attribute 23, 3
   8              		.eabi_attribute 24, 1
   9              		.eabi_attribute 25, 1
  10              		.eabi_attribute 26, 1
  11              		.eabi_attribute 30, 6
  12              		.eabi_attribute 34, 1
  13              		.eabi_attribute 18, 4
  14              		.file	"zf_device_imu963ra.c"
  15              		.text
  16              	.Ltext0:
  17              		.cfi_sections	.debug_frame
  18              		.global	imu963ra_module_func_list
  19              		.section	.rodata.imu963ra_module_func_list,"a"
  20              		.align	2
  23              	imu963ra_module_func_list:
  24 0000 00000000 		.word	imu963ra_func_get_acc
  25 0004 00000000 		.word	imu963ra_func_get_gyro
  26 0008 00000000 		.word	imu963ra_func_get_mag
  27 000c 00000000 		.word	imu963ra_func_set_config
  28 0010 00000000 		.word	imu963ra_func_ckeck_id
  29 0014 00000000 		.word	imu963ra_func_init
  30              		.section	.rodata
  31              		.align	2
  32              	.LC3:
  33 0000 6C696272 		.ascii	"libraries/zf_device/zf_device_imu963ra.c\000"
  33      61726965 
  33      732F7A66 
  33      5F646576 
  33      6963652F 
  34              		.section	.text.imu963ra_write_mag_register,"ax",%progbits
  35              		.align	1
  36              		.p2align 4,,15
  37              		.syntax unified
  38              		.thumb
  39              		.thumb_func
  41              	imu963ra_write_mag_register:
  42              	.LFB482:
  43              		.file 1 "libraries/zf_device/zf_device_imu963ra.c"
   1:libraries/zf_device/zf_device_imu963ra.c **** /**************************************************************************************************
   2:libraries/zf_device/zf_device_imu963ra.c **** * Stellar-SR5E1E3 Opensource Library ÕŹ│’╝łStellar-SR5E1E3 Õ╝Ćµ║ÉÕ║ō’╝ēµś»õĖĆõĖ¬Õ¤║õ║ÄÕ«śµ¢╣ SDK µÄ
   3:libraries/zf_device/zf_device_imu963ra.c **** * Copyright (c) 2022 SEEKFREE ķĆÉķŻ×ń¦æµŖĆ
   4:libraries/zf_device/zf_device_imu963ra.c **** *
   5:libraries/zf_device/zf_device_imu963ra.c **** * µ£¼µ¢ćõ╗Čµś» Stellar-SR5E1E3 Õ╝Ćµ║ÉÕ║ōńÜäõĖĆķā©Õłå
   6:libraries/zf_device/zf_device_imu963ra.c **** *
   7:libraries/zf_device/zf_device_imu963ra.c **** * Stellar-SR5E1E3 Õ╝Ćµ║ÉÕ║ō µś»ÕģŹĶ┤╣ĶĮ»õ╗Č
   8:libraries/zf_device/zf_device_imu963ra.c **** * µé©ÕÅ»õ╗źµĀ╣µŹ«Ķć¬ńö▒ĶĮ»õ╗ČÕ¤║ķćæõ╝ÜÕÅæÕĖāńÜä GPL’╝łGNU General Public License’╝īÕŹ│ GNUķĆÜńö©Õģ¼
   9:libraries/zf_device/zf_device_imu963ra.c **** * ÕŹ│ GPL ńÜäń¼¼3ńēł’╝łÕŹ│ GPL3.0’╝ēµł¢’╝łµé©ķĆēµŗ®ńÜä’╝ēõ╗╗õĮĢÕÉÄµØźńÜäńēłµ£¼’╝īķćŹµ¢░ÕÅæÕĖāÕÆī/µł
  10:libraries/zf_device/zf_device_imu963ra.c **** *
  11:libraries/zf_device/zf_device_imu963ra.c **** * µ£¼Õ╝Ćµ║ÉÕ║ōńÜäÕÅæÕĖāµś»ÕĖīµ£øÕ«āĶāĮÕÅæµīźõĮ£ńö©’╝īõĮåÕ╣Čµ£¬Õ»╣ÕģČõĮ£õ╗╗õĮĢńÜäõ┐ØĶ»ü
  12:libraries/zf_device/zf_device_imu963ra.c **** * ńöÜĶć│µ▓Īµ£ēķÜÉÕÉ½ńÜäķĆéķöĆµĆ¦µł¢ķĆéÕÉłńē╣Õ«Üńö©ķĆöńÜäõ┐ØĶ»ü
  13:libraries/zf_device/zf_device_imu963ra.c **** * µø┤ÕżÜń╗åĶŖéĶ»ĘÕÅéĶ¦ü GPL
  14:libraries/zf_device/zf_device_imu963ra.c **** *
  15:libraries/zf_device/zf_device_imu963ra.c **** * µé©Õ║öĶ»źÕ£©µöČÕł░µ£¼Õ╝Ćµ║ÉÕ║ōńÜäÕÉīµŚČµöČÕł░õĖĆõ╗Į GPL ńÜäÕē»µ£¼
  16:libraries/zf_device/zf_device_imu963ra.c **** * Õ”éµ×£µ▓Īµ£ē’╝īĶ»ĘÕÅéķśģ<https://www.gnu.org/licenses/>
  17:libraries/zf_device/zf_device_imu963ra.c **** *
  18:libraries/zf_device/zf_device_imu963ra.c **** * ķóØÕż¢µ│©µśÄ’╝Ü
  19:libraries/zf_device/zf_device_imu963ra.c **** * µ£¼Õ╝Ćµ║ÉÕ║ōõĮ┐ńö© GPL3.0 Õ╝Ćµ║ÉĶ«ĖÕÅ»Ķ»üÕŹÅĶ«« õ╗źõĖŖĶ«ĖÕÅ»ńö│µśÄõĖ║Ķ»æµ¢ćńēłµ£¼
  20:libraries/zf_device/zf_device_imu963ra.c **** * Ķ«ĖÕÅ»ńö│µśÄĶŗ▒µ¢ćńēłÕ£© libraries/doc µ¢ćõ╗ČÕż╣õĖŗńÜä GPL3_permission_statement.txt µ¢ćõ╗ČõĖŁ
  21:libraries/zf_device/zf_device_imu963ra.c **** * Ķ«ĖÕÅ»Ķ»üÕē»µ£¼Õ£© libraries µ¢ćõ╗ČÕż╣õĖŗ ÕŹ│Ķ»źµ¢ćõ╗ČÕż╣õĖŗńÜä LICENSE µ¢ćõ╗Č
  22:libraries/zf_device/zf_device_imu963ra.c **** * µ¼óĶ┐ÄÕÉäõĮŹõĮ┐ńö©Õ╣Čõ╝ĀµÆŁµ£¼ń©ŗÕ║Å õĮåõ┐«µö╣ÕåģÕ«╣µŚČÕ┐ģķĪ╗õ┐ØńĢÖķĆÉķŻ×ń¦æµŖĆńÜäńēłµØāÕŻ░µśÄ’╝ł
  23:libraries/zf_device/zf_device_imu963ra.c **** *
  24:libraries/zf_device/zf_device_imu963ra.c **** * µ¢ćõ╗ČÕÉŹń¦░          zf_device_imu963ra
  25:libraries/zf_device/zf_device_imu963ra.c **** * Õģ¼ÕÅĖÕÉŹń¦░          µłÉķāĮķĆÉķŻ×ń¦æµŖĆµ£ēķÖÉÕģ¼ÕÅĖ
  26:libraries/zf_device/zf_device_imu963ra.c **** * ńēłµ£¼õ┐Īµü»          µ¤źń£ŗ libraries/doc µ¢ćõ╗ČÕż╣Õåģ version µ¢ćõ╗Č ńēłµ£¼Ķ»┤µśÄ
  27:libraries/zf_device/zf_device_imu963ra.c **** * Õ╝ĆÕÅæńÄ»Õóā          StellarStudio 7.0.0
  28:libraries/zf_device/zf_device_imu963ra.c **** * ķĆéńö©Õ╣│ÕÅ░          Stellar-SR5E1E3
  29:libraries/zf_device/zf_device_imu963ra.c **** * Õ║Śķō║ķōŠµÄź          https://www.seekfree.cn/
  30:libraries/zf_device/zf_device_imu963ra.c **** ***************************************************************************************************
  31:libraries/zf_device/zf_device_imu963ra.c **** 
  32:libraries/zf_device/zf_device_imu963ra.c **** /**************************************************************************************************
  33:libraries/zf_device/zf_device_imu963ra.c **** * µÄźń║┐Õ«Üõ╣ē          µ¤źń£ŗ zf_device_imu_interface.h õĖŁµÄźÕÅŻĶĄäµ║ÉÕ«Üõ╣ē
  34:libraries/zf_device/zf_device_imu963ra.c **** ***************************************************************************************************
  35:libraries/zf_device/zf_device_imu963ra.c **** 
  36:libraries/zf_device/zf_device_imu963ra.c **** // Ķć¬Ķ║½Õż┤µ¢ćõ╗Č
  37:libraries/zf_device/zf_device_imu963ra.c **** #include "zf_device_imu963ra.h"
  38:libraries/zf_device/zf_device_imu963ra.c **** 
  39:libraries/zf_device/zf_device_imu963ra.c **** // µŁżÕżäÕ«Üõ╣ē IMU963RA ķ®▒ÕŖ©µēĆķ£ĆńÜäÕåģķā©Õ«Üõ╣ē Ķ┐ÖķćīõĖŹÕģüĶ«Ėńö©µłĘõ┐«µö╣
  40:libraries/zf_device/zf_device_imu963ra.c **** // >>>>>>>>>>>>>>>>>>>>>>>>>>>>>>>>>>>>>>>>> Part Start >>>>>>>>>>>>>>>>>>>>>>>>>>>>>>>>>>>>>>>>>
  41:libraries/zf_device/zf_device_imu963ra.c **** // Õ«Üõ╣ē IMU963RA Õåģķā©Õ£░ÕØĆ
  42:libraries/zf_device/zf_device_imu963ra.c **** #define IMU963RA_DEV_ADDR                           ( 0x6B )                    // 7bit Õ£░ÕØĆµĀ╝Õ╝
  43:libraries/zf_device/zf_device_imu963ra.c **** #define IMU963RA_SPI_W                              ( 0x00 )
  44:libraries/zf_device/zf_device_imu963ra.c **** #define IMU963RA_SPI_R                              ( 0x80 )
  45:libraries/zf_device/zf_device_imu963ra.c **** 
  46:libraries/zf_device/zf_device_imu963ra.c **** #define IMU963RA_FUNC_CFG_ACCESS                    ( 0x01 )
  47:libraries/zf_device/zf_device_imu963ra.c **** #define IMU963RA_PIN_CTRL                           ( 0x02 )
  48:libraries/zf_device/zf_device_imu963ra.c **** #define IMU963RA_S4S_TPH_L                          ( 0x04 )
  49:libraries/zf_device/zf_device_imu963ra.c **** #define IMU963RA_S4S_TPH_H                          ( 0x05 )
  50:libraries/zf_device/zf_device_imu963ra.c **** #define IMU963RA_S4S_RR                             ( 0x06 )
  51:libraries/zf_device/zf_device_imu963ra.c **** #define IMU963RA_FIFO_CTRL1                         ( 0x07 )
  52:libraries/zf_device/zf_device_imu963ra.c **** #define IMU963RA_FIFO_CTRL2                         ( 0x08 )
  53:libraries/zf_device/zf_device_imu963ra.c **** #define IMU963RA_FIFO_CTRL3                         ( 0x09 )
  54:libraries/zf_device/zf_device_imu963ra.c **** #define IMU963RA_FIFO_CTRL4                         ( 0x0A )
  55:libraries/zf_device/zf_device_imu963ra.c **** #define IMU963RA_COUNTER_BDR_REG1                   ( 0x0B )
  56:libraries/zf_device/zf_device_imu963ra.c **** #define IMU963RA_COUNTER_BDR_REG2                   ( 0x0C )
  57:libraries/zf_device/zf_device_imu963ra.c **** #define IMU963RA_INT1_CTRL                          ( 0x0D )
  58:libraries/zf_device/zf_device_imu963ra.c **** #define IMU963RA_INT2_CTRL                          ( 0x0E )
  59:libraries/zf_device/zf_device_imu963ra.c **** #define IMU963RA_WHO_AM_I                           ( 0x0F )
  60:libraries/zf_device/zf_device_imu963ra.c **** #define IMU963RA_CTRL1_XL                           ( 0x10 )
  61:libraries/zf_device/zf_device_imu963ra.c **** #define IMU963RA_CTRL2_G                            ( 0x11 )
  62:libraries/zf_device/zf_device_imu963ra.c **** #define IMU963RA_CTRL3_C                            ( 0x12 )
  63:libraries/zf_device/zf_device_imu963ra.c **** #define IMU963RA_CTRL4_C                            ( 0x13 )
  64:libraries/zf_device/zf_device_imu963ra.c **** #define IMU963RA_CTRL5_C                            ( 0x14 )
  65:libraries/zf_device/zf_device_imu963ra.c **** #define IMU963RA_CTRL6_C                            ( 0x15 )
  66:libraries/zf_device/zf_device_imu963ra.c **** #define IMU963RA_CTRL7_G                            ( 0x16 )
  67:libraries/zf_device/zf_device_imu963ra.c **** #define IMU963RA_CTRL8_XL                           ( 0x17 )
  68:libraries/zf_device/zf_device_imu963ra.c **** #define IMU963RA_CTRL9_XL                           ( 0x18 )
  69:libraries/zf_device/zf_device_imu963ra.c **** #define IMU963RA_CTRL10_C                           ( 0x19 )
  70:libraries/zf_device/zf_device_imu963ra.c **** #define IMU963RA_ALL_INT_SRC                        ( 0x1A )
  71:libraries/zf_device/zf_device_imu963ra.c **** #define IMU963RA_WAKE_UP_SRC                        ( 0x1B )
  72:libraries/zf_device/zf_device_imu963ra.c **** #define IMU963RA_TAP_SRC                            ( 0x1C )
  73:libraries/zf_device/zf_device_imu963ra.c **** #define IMU963RA_D6D_SRC                            ( 0x1D )
  74:libraries/zf_device/zf_device_imu963ra.c **** #define IMU963RA_STATUS_REG                         ( 0x1E )
  75:libraries/zf_device/zf_device_imu963ra.c **** #define IMU963RA_OUT_TEMP_L                         ( 0x20 )
  76:libraries/zf_device/zf_device_imu963ra.c **** #define IMU963RA_OUT_TEMP_H                         ( 0x21 )
  77:libraries/zf_device/zf_device_imu963ra.c **** #define IMU963RA_OUTX_L_G                           ( 0x22 )
  78:libraries/zf_device/zf_device_imu963ra.c **** #define IMU963RA_OUTX_H_G                           ( 0x23 )
  79:libraries/zf_device/zf_device_imu963ra.c **** #define IMU963RA_OUTY_L_G                           ( 0x24 )
  80:libraries/zf_device/zf_device_imu963ra.c **** #define IMU963RA_OUTY_H_G                           ( 0x25 )
  81:libraries/zf_device/zf_device_imu963ra.c **** #define IMU963RA_OUTZ_L_G                           ( 0x26 )
  82:libraries/zf_device/zf_device_imu963ra.c **** #define IMU963RA_OUTZ_H_G                           ( 0x27 )
  83:libraries/zf_device/zf_device_imu963ra.c **** #define IMU963RA_OUTX_L_A                           ( 0x28 )
  84:libraries/zf_device/zf_device_imu963ra.c **** #define IMU963RA_OUTX_H_A                           ( 0x29 )
  85:libraries/zf_device/zf_device_imu963ra.c **** #define IMU963RA_OUTY_L_A                           ( 0x2A )
  86:libraries/zf_device/zf_device_imu963ra.c **** #define IMU963RA_OUTY_H_A                           ( 0x2B )
  87:libraries/zf_device/zf_device_imu963ra.c **** #define IMU963RA_OUTZ_L_A                           ( 0x2C )
  88:libraries/zf_device/zf_device_imu963ra.c **** #define IMU963RA_OUTZ_H_A                           ( 0x2D )
  89:libraries/zf_device/zf_device_imu963ra.c **** #define IMU963RA_EMB_FUNC_STATUS_MAINPAGE           ( 0x35 )
  90:libraries/zf_device/zf_device_imu963ra.c **** #define IMU963RA_FSM_STATUS_A_MAINPAGE              ( 0x36 )
  91:libraries/zf_device/zf_device_imu963ra.c **** #define IMU963RA_FSM_STATUS_B_MAINPAGE              ( 0x37 )
  92:libraries/zf_device/zf_device_imu963ra.c **** #define IMU963RA_STATUS_MASTER_MAINPAGE             ( 0x39 )
  93:libraries/zf_device/zf_device_imu963ra.c **** #define IMU963RA_FIFO_STATUS1                       ( 0x3A )
  94:libraries/zf_device/zf_device_imu963ra.c **** #define IMU963RA_FIFO_STATUS2                       ( 0x3B )
  95:libraries/zf_device/zf_device_imu963ra.c **** #define IMU963RA_TIMESTAMP0                         ( 0x40 )
  96:libraries/zf_device/zf_device_imu963ra.c **** #define IMU963RA_TIMESTAMP1                         ( 0x41 )
  97:libraries/zf_device/zf_device_imu963ra.c **** #define IMU963RA_TIMESTAMP2                         ( 0x42 )
  98:libraries/zf_device/zf_device_imu963ra.c **** #define IMU963RA_TIMESTAMP3                         ( 0x43 )
  99:libraries/zf_device/zf_device_imu963ra.c **** #define IMU963RA_TAP_CFG0                           ( 0x56 )
 100:libraries/zf_device/zf_device_imu963ra.c **** #define IMU963RA_TAP_CFG1                           ( 0x57 )
 101:libraries/zf_device/zf_device_imu963ra.c **** #define IMU963RA_TAP_CFG2                           ( 0x58 )
 102:libraries/zf_device/zf_device_imu963ra.c **** #define IMU963RA_TAP_THS_6D                         ( 0x59 )
 103:libraries/zf_device/zf_device_imu963ra.c **** #define IMU963RA_INT_DUR2                           ( 0x5A )
 104:libraries/zf_device/zf_device_imu963ra.c **** #define IMU963RA_WAKE_UP_THS                        ( 0x5B )
 105:libraries/zf_device/zf_device_imu963ra.c **** #define IMU963RA_WAKE_UP_DUR                        ( 0x5C )
 106:libraries/zf_device/zf_device_imu963ra.c **** #define IMU963RA_FREE_FALL                          ( 0x5D )
 107:libraries/zf_device/zf_device_imu963ra.c **** #define IMU963RA_MD1_CFG                            ( 0x5E )
 108:libraries/zf_device/zf_device_imu963ra.c **** #define IMU963RA_MD2_CFG                            ( 0x5F )
 109:libraries/zf_device/zf_device_imu963ra.c **** #define IMU963RA_S4S_ST_CMD_CODE                    ( 0x60 )
 110:libraries/zf_device/zf_device_imu963ra.c **** #define IMU963RA_S4S_DT_REG                         ( 0x61 )
 111:libraries/zf_device/zf_device_imu963ra.c **** #define IMU963RA_I3C_BUS_AVB                        ( 0x62 )
 112:libraries/zf_device/zf_device_imu963ra.c **** #define IMU963RA_INTERNAL_FREQ_FINE                 ( 0x63 )
 113:libraries/zf_device/zf_device_imu963ra.c **** #define IMU963RA_INT_OIS                            ( 0x6F )
 114:libraries/zf_device/zf_device_imu963ra.c **** #define IMU963RA_CTRL1_OIS                          ( 0x70 )
 115:libraries/zf_device/zf_device_imu963ra.c **** #define IMU963RA_CTRL2_OIS                          ( 0x71 )
 116:libraries/zf_device/zf_device_imu963ra.c **** #define IMU963RA_CTRL3_OIS                          ( 0x72 )
 117:libraries/zf_device/zf_device_imu963ra.c **** #define IMU963RA_X_OFS_USR                          ( 0x73 )
 118:libraries/zf_device/zf_device_imu963ra.c **** #define IMU963RA_Y_OFS_USR                          ( 0x74 )
 119:libraries/zf_device/zf_device_imu963ra.c **** #define IMU963RA_Z_OFS_USR                          ( 0x75 )
 120:libraries/zf_device/zf_device_imu963ra.c **** #define IMU963RA_FIFO_DATA_OUT_TAG                  ( 0x78 )
 121:libraries/zf_device/zf_device_imu963ra.c **** #define IMU963RA_FIFO_DATA_OUT_X_L                  ( 0x79 )
 122:libraries/zf_device/zf_device_imu963ra.c **** #define IMU963RA_FIFO_DATA_OUT_X_H                  ( 0x7A )
 123:libraries/zf_device/zf_device_imu963ra.c **** #define IMU963RA_FIFO_DATA_OUT_Y_L                  ( 0x7B )
 124:libraries/zf_device/zf_device_imu963ra.c **** #define IMU963RA_FIFO_DATA_OUT_Y_H                  ( 0x7C )
 125:libraries/zf_device/zf_device_imu963ra.c **** #define IMU963RA_FIFO_DATA_OUT_Z_L                  ( 0x7D )
 126:libraries/zf_device/zf_device_imu963ra.c **** #define IMU963RA_FIFO_DATA_OUT_Z_H                  ( 0x7E )
 127:libraries/zf_device/zf_device_imu963ra.c **** 
 128:libraries/zf_device/zf_device_imu963ra.c **** // ķøåń║┐ÕÖ©ÕŖ¤ĶāĮńøĖÕģ│Õ»äÕŁśÕÖ© ķ£ĆĶ”üÕ░åFUNC_CFG_ACCESSńÜäSHUB_REG_ACCESSõĮŹĶ«ŠńĮ«õĖ║1µēŹĶāĮµŁŻń
 129:libraries/zf_device/zf_device_imu963ra.c **** #define IMU963RA_SENSOR_HUB_1                       ( 0x02 ) 
 130:libraries/zf_device/zf_device_imu963ra.c **** #define IMU963RA_SENSOR_HUB_2                       ( 0x03 ) 
 131:libraries/zf_device/zf_device_imu963ra.c **** #define IMU963RA_SENSOR_HUB_3                       ( 0x04 ) 
 132:libraries/zf_device/zf_device_imu963ra.c **** #define IMU963RA_SENSOR_HUB_4                       ( 0x05 ) 
 133:libraries/zf_device/zf_device_imu963ra.c **** #define IMU963RA_SENSOR_HUB_5                       ( 0x06 ) 
 134:libraries/zf_device/zf_device_imu963ra.c **** #define IMU963RA_SENSOR_HUB_6                       ( 0x07 ) 
 135:libraries/zf_device/zf_device_imu963ra.c **** #define IMU963RA_SENSOR_HUB_7                       ( 0x08 ) 
 136:libraries/zf_device/zf_device_imu963ra.c **** #define IMU963RA_SENSOR_HUB_8                       ( 0x09 ) 
 137:libraries/zf_device/zf_device_imu963ra.c **** #define IMU963RA_SENSOR_HUB_9                       ( 0x0A ) 
 138:libraries/zf_device/zf_device_imu963ra.c **** #define IMU963RA_SENSOR_HUB_10                      ( 0x0B ) 
 139:libraries/zf_device/zf_device_imu963ra.c **** #define IMU963RA_SENSOR_HUB_11                      ( 0x0C ) 
 140:libraries/zf_device/zf_device_imu963ra.c **** #define IMU963RA_SENSOR_HUB_12                      ( 0x0D ) 
 141:libraries/zf_device/zf_device_imu963ra.c **** #define IMU963RA_SENSOR_HUB_13                      ( 0x0E ) 
 142:libraries/zf_device/zf_device_imu963ra.c **** #define IMU963RA_SENSOR_HUB_14                      ( 0x0F ) 
 143:libraries/zf_device/zf_device_imu963ra.c **** #define IMU963RA_SENSOR_HUB_15                      ( 0x10 ) 
 144:libraries/zf_device/zf_device_imu963ra.c **** #define IMU963RA_SENSOR_HUB_16                      ( 0x11 ) 
 145:libraries/zf_device/zf_device_imu963ra.c **** #define IMU963RA_SENSOR_HUB_17                      ( 0x12 ) 
 146:libraries/zf_device/zf_device_imu963ra.c **** #define IMU963RA_SENSOR_HUB_18                      ( 0x13 ) 
 147:libraries/zf_device/zf_device_imu963ra.c **** #define IMU963RA_MASTER_CONFIG                      ( 0x14 ) 
 148:libraries/zf_device/zf_device_imu963ra.c **** #define IMU963RA_SLV0_ADD                           ( 0x15 ) 
 149:libraries/zf_device/zf_device_imu963ra.c **** #define IMU963RA_SLV0_SUBADD                        ( 0x16 ) 
 150:libraries/zf_device/zf_device_imu963ra.c **** #define IMU963RA_SLV0_CONFIG                        ( 0x17 ) 
 151:libraries/zf_device/zf_device_imu963ra.c **** #define IMU963RA_SLV1_ADD                           ( 0x18 ) 
 152:libraries/zf_device/zf_device_imu963ra.c **** #define IMU963RA_SLV1_SUBADD                        ( 0x19 ) 
 153:libraries/zf_device/zf_device_imu963ra.c **** #define IMU963RA_SLV1_CONFIG                        ( 0x1A ) 
 154:libraries/zf_device/zf_device_imu963ra.c **** #define IMU963RA_SLV2_ADD                           ( 0x1B ) 
 155:libraries/zf_device/zf_device_imu963ra.c **** #define IMU963RA_SLV2_SUBADD                        ( 0x1C ) 
 156:libraries/zf_device/zf_device_imu963ra.c **** #define IMU963RA_SLV2_CONFIG                        ( 0x1D ) 
 157:libraries/zf_device/zf_device_imu963ra.c **** #define IMU963RA_SLV3_ADD                           ( 0x1E ) 
 158:libraries/zf_device/zf_device_imu963ra.c **** #define IMU963RA_SLV3_SUBADD                        ( 0x1F ) 
 159:libraries/zf_device/zf_device_imu963ra.c **** #define IMU963RA_SLV3_CONFIG                        ( 0x20 ) 
 160:libraries/zf_device/zf_device_imu963ra.c **** #define IMU963RA_DATAWRITE_SLV0                     ( 0x21 ) 
 161:libraries/zf_device/zf_device_imu963ra.c **** #define IMU963RA_STATUS_MASTER                      ( 0x22 )
 162:libraries/zf_device/zf_device_imu963ra.c **** 
 163:libraries/zf_device/zf_device_imu963ra.c **** #define IMU963RA_MAG_ADDR                           ( 0x0D )                    // 7õĮŹIICÕ£░ÕØĆ
 164:libraries/zf_device/zf_device_imu963ra.c **** #define IMU963RA_MAG_OUTX_L                         ( 0x00 )
 165:libraries/zf_device/zf_device_imu963ra.c **** #define IMU963RA_MAG_CONTROL1                       ( 0x09 )
 166:libraries/zf_device/zf_device_imu963ra.c **** #define IMU963RA_MAG_CONTROL2                       ( 0x0A )
 167:libraries/zf_device/zf_device_imu963ra.c **** #define IMU963RA_MAG_FBR                            ( 0x0B )
 168:libraries/zf_device/zf_device_imu963ra.c **** #define IMU963RA_MAG_CHIP_ID                        ( 0x0D )
 169:libraries/zf_device/zf_device_imu963ra.c **** 
 170:libraries/zf_device/zf_device_imu963ra.c **** static uint8 imu963ra_func_get_acc      (imu_interface_obj_struct *interface, imu963ra_measurement_
 171:libraries/zf_device/zf_device_imu963ra.c **** static uint8 imu963ra_func_get_gyro     (imu_interface_obj_struct *interface, imu963ra_measurement_
 172:libraries/zf_device/zf_device_imu963ra.c **** static uint8 imu963ra_func_get_mag      (imu_interface_obj_struct *interface, imu963ra_measurement_
 173:libraries/zf_device/zf_device_imu963ra.c **** static uint8 imu963ra_func_set_config   (imu_interface_obj_struct *interface, imu_config_item_enum 
 174:libraries/zf_device/zf_device_imu963ra.c **** static uint8 imu963ra_func_ckeck_id     (imu_interface_obj_struct *interface);
 175:libraries/zf_device/zf_device_imu963ra.c **** static uint8 imu963ra_func_init         (imu_interface_obj_struct *interface);
 176:libraries/zf_device/zf_device_imu963ra.c **** 
 177:libraries/zf_device/zf_device_imu963ra.c **** const imu_module_func_list imu963ra_module_func_list = 
 178:libraries/zf_device/zf_device_imu963ra.c **** {
 179:libraries/zf_device/zf_device_imu963ra.c ****     (imu_func_get_acc   )   imu963ra_func_get_acc   ,
 180:libraries/zf_device/zf_device_imu963ra.c ****     (imu_func_get_gyro  )   imu963ra_func_get_gyro  ,
 181:libraries/zf_device/zf_device_imu963ra.c ****     (imu_func_get_mag   )   imu963ra_func_get_mag   ,
 182:libraries/zf_device/zf_device_imu963ra.c ****     (imu_func_set_config)   imu963ra_func_set_config,
 183:libraries/zf_device/zf_device_imu963ra.c ****     (imu_func_ckeck_id  )   imu963ra_func_ckeck_id  ,
 184:libraries/zf_device/zf_device_imu963ra.c ****     (imu_func_init      )   imu963ra_func_init      ,
 185:libraries/zf_device/zf_device_imu963ra.c **** };
 186:libraries/zf_device/zf_device_imu963ra.c **** // <<<<<<<<<<<<<<<<<<<<<<<<<<<<<<<<<<<<<<<<< Part   End <<<<<<<<<<<<<<<<<<<<<<<<<<<<<<<<<<<<<<<<<
 187:libraries/zf_device/zf_device_imu963ra.c **** 
 188:libraries/zf_device/zf_device_imu963ra.c **** // µŁżÕżäÕ«Üõ╣ē µ£¼µ¢ćõ╗ČńÜäµēĆµ£ēÕćĮµĢ░ÕģĘõĮōÕ«Üõ╣ē Ķ┐ÖķćīõĖŹÕģüĶ«Ėńö©µłĘõ┐«µö╣
 189:libraries/zf_device/zf_device_imu963ra.c **** // >>>>>>>>>>>>>>>>>>>>>>>>>>>>>>>>>>>>>>>>> Part Start >>>>>>>>>>>>>>>>>>>>>>>>>>>>>>>>>>>>>>>>>
 190:libraries/zf_device/zf_device_imu963ra.c **** //-------------------------------------------------------------------------------------------------
 191:libraries/zf_device/zf_device_imu963ra.c **** // ÕćĮµĢ░ń«Ćõ╗ŗ     IMU963RA õĮ£õĖ║ IIC õĖ╗µ£║ÕÉæńŻüÕŖøĶ«ĪÕåÖµĢ░µŹ«
 192:libraries/zf_device/zf_device_imu963ra.c **** // ÕÅéµĢ░Ķ»┤µśÄ     *interface      IMU963RA ńÜäķĆÜõ┐ĪµÄźÕÅŻÕ»╣Ķ▒ĪµīćķÆł
 193:libraries/zf_device/zf_device_imu963ra.c **** // ÕÅéµĢ░Ķ»┤µśÄ     addr            ńø«µĀćÕ£░ÕØĆ
 194:libraries/zf_device/zf_device_imu963ra.c **** // ÕÅéµĢ░Ķ»┤µśÄ     reg             ńø«µĀćÕ»äÕŁśÕÖ©
 195:libraries/zf_device/zf_device_imu963ra.c **** // ÕÅéµĢ░Ķ»┤µśÄ     data            µĢ░µŹ«
 196:libraries/zf_device/zf_device_imu963ra.c **** // Ķ┐öÕø×ÕÅéµĢ░     uint8           µōŹõĮ£ńŖČµĆü ZF_NO_ERROR / IMU963RA_OPERATION_DONE - Õ«īµłÉ ÕģČ
 197:libraries/zf_device/zf_device_imu963ra.c **** // õĮ┐ńö©ńż║õŠŗ     imu963ra_write_mag_register(interface, addr, reg, data);
 198:libraries/zf_device/zf_device_imu963ra.c **** // Õżćµ│©õ┐Īµü»     Õåģķā©Ķ░āńö©
 199:libraries/zf_device/zf_device_imu963ra.c **** //-------------------------------------------------------------------------------------------------
 200:libraries/zf_device/zf_device_imu963ra.c **** static uint8 imu963ra_write_mag_register (imu_interface_obj_struct *interface, uint8 addr, uint8 re
 201:libraries/zf_device/zf_device_imu963ra.c **** {
  44              		.loc 1 201 1
  45              		.cfi_startproc
  46              		@ args = 0, pretend = 0, frame = 16
  47              		@ frame_needed = 0, uses_anonymous_args = 0
  48 0000 00B5     		push	{lr}
  49              		.cfi_def_cfa_offset 4
  50              		.cfi_offset 14, -4
  51 0002 87B0     		sub	sp, sp, #28
  52              		.cfi_def_cfa_offset 32
  53 0004 0390     		str	r0, [sp, #12]
  54 0006 0846     		mov	r0, r1
  55 0008 1146     		mov	r1, r2
  56 000a 1A46     		mov	r2, r3
  57 000c 0346     		mov	r3, r0
  58 000e 8DF80B30 		strb	r3, [sp, #11]
  59 0012 0B46     		mov	r3, r1
  60 0014 8DF80A30 		strb	r3, [sp, #10]
  61 0018 1346     		mov	r3, r2
  62 001a 8DF80930 		strb	r3, [sp, #9]
 202:libraries/zf_device/zf_device_imu963ra.c ****     imu963ra_operation_state_enum   return_state = IMU963RA_ERROR_UNKNOW_ERROR;
  63              		.loc 1 202 37
  64 001e 0123     		movs	r3, #1
  65 0020 8DF81730 		strb	r3, [sp, #23]
 203:libraries/zf_device/zf_device_imu963ra.c **** 
 204:libraries/zf_device/zf_device_imu963ra.c ****     uint8   temp_data       = 0;
  66              		.loc 1 204 13
  67 0024 0023     		movs	r3, #0
  68 0026 8DF81330 		strb	r3, [sp, #19]
 205:libraries/zf_device/zf_device_imu963ra.c ****     uint16  timeout_count   = 0;
  69              		.loc 1 205 13
  70 002a 0023     		movs	r3, #0
  71 002c ADF81430 		strh	r3, [sp, #20]	@ movhi
 206:libraries/zf_device/zf_device_imu963ra.c **** 
 207:libraries/zf_device/zf_device_imu963ra.c ****     do
 208:libraries/zf_device/zf_device_imu963ra.c ****     {
 209:libraries/zf_device/zf_device_imu963ra.c ****         if(imu_interface_assert(NULL != interface))
  72              		.loc 1 209 11
  73 0030 039B     		ldr	r3, [sp, #12]
  74 0032 002B     		cmp	r3, #0
  75 0034 14D1     		bne	.L2
  76              		.loc 1 209 12 discriminator 1
  77 0036 039B     		ldr	r3, [sp, #12]
  78 0038 002B     		cmp	r3, #0
  79 003a 14BF     		ite	ne
  80 003c 0123     		movne	r3, #1
  81 003e 0023     		moveq	r3, #0
  82 0040 DBB2     		uxtb	r3, r3
  83 0042 1946     		mov	r1, r3
  84 0044 D123     		movs	r3, #209
  85 0046 0093     		str	r3, [sp]
  86 0048 2D4B     		ldr	r3, .L9
  87 004a 0022     		movs	r2, #0
  88 004c 0220     		movs	r0, #2
  89 004e FFF7FEFF 		bl	debug_message_handler
  90 0052 0346     		mov	r3, r0
  91 0054 002B     		cmp	r3, #0
  92 0056 03D0     		beq	.L2
 210:libraries/zf_device/zf_device_imu963ra.c ****         {
 211:libraries/zf_device/zf_device_imu963ra.c ****             // µŁżÕżäÕ”éµ×£µ¢ŁĶ©ĆµŖźķöÖ ķéŻõ╣łĶ»üµśÄõ╝ĀÕģźµĢ░µŹ«µīćķÆłõĖ║ NULL ń®║µīćķÆł
 212:libraries/zf_device/zf_device_imu963ra.c ****             // õĖŹÕÅ»õ╗źÕ»╣ń®║µīćķÆłĶ┐øĶĪīµōŹõĮ£
 213:libraries/zf_device/zf_device_imu963ra.c ****             return_state = IMU963RA_ERROR_DATA_BUFFER_NULL;
  93              		.loc 1 213 26
  94 0058 2423     		movs	r3, #36
  95 005a 8DF81730 		strb	r3, [sp, #23]
 214:libraries/zf_device/zf_device_imu963ra.c ****             break;
  96              		.loc 1 214 13
  97 005e 48E0     		b	.L3
  98              	.L2:
 215:libraries/zf_device/zf_device_imu963ra.c ****         }
 216:libraries/zf_device/zf_device_imu963ra.c **** 
 217:libraries/zf_device/zf_device_imu963ra.c ****         addr = addr << 1;
  99              		.loc 1 217 14
 100 0060 9DF80B30 		ldrb	r3, [sp, #11]
 101 0064 5B00     		lsls	r3, r3, #1
 102 0066 8DF80B30 		strb	r3, [sp, #11]
 218:libraries/zf_device/zf_device_imu963ra.c ****         imu_interface_write_8bit_register(interface, IMU963RA_DEV_ADDR, IMU963RA_SLV0_CONFIG   , 0x
 103              		.loc 1 218 9
 104 006a 0023     		movs	r3, #0
 105 006c 1722     		movs	r2, #23
 106 006e 6B21     		movs	r1, #107
 107 0070 0398     		ldr	r0, [sp, #12]
 108 0072 FFF7FEFF 		bl	imu_interface_write_8bit_register
 219:libraries/zf_device/zf_device_imu963ra.c ****         imu_interface_write_8bit_register(interface, IMU963RA_DEV_ADDR, IMU963RA_SLV0_ADD      , ad
 109              		.loc 1 219 9
 110 0076 9DF80B30 		ldrb	r3, [sp, #11]	@ zero_extendqisi2
 111 007a 1522     		movs	r2, #21
 112 007c 6B21     		movs	r1, #107
 113 007e 0398     		ldr	r0, [sp, #12]
 114 0080 FFF7FEFF 		bl	imu_interface_write_8bit_register
 220:libraries/zf_device/zf_device_imu963ra.c ****         imu_interface_write_8bit_register(interface, IMU963RA_DEV_ADDR, IMU963RA_SLV0_SUBADD   , re
 115              		.loc 1 220 9
 116 0084 9DF80A30 		ldrb	r3, [sp, #10]	@ zero_extendqisi2
 117 0088 1622     		movs	r2, #22
 118 008a 6B21     		movs	r1, #107
 119 008c 0398     		ldr	r0, [sp, #12]
 120 008e FFF7FEFF 		bl	imu_interface_write_8bit_register
 221:libraries/zf_device/zf_device_imu963ra.c ****         imu_interface_write_8bit_register(interface, IMU963RA_DEV_ADDR, IMU963RA_DATAWRITE_SLV0, da
 121              		.loc 1 221 9
 122 0092 9DF80930 		ldrb	r3, [sp, #9]	@ zero_extendqisi2
 123 0096 2122     		movs	r2, #33
 124 0098 6B21     		movs	r1, #107
 125 009a 0398     		ldr	r0, [sp, #12]
 126 009c FFF7FEFF 		bl	imu_interface_write_8bit_register
 222:libraries/zf_device/zf_device_imu963ra.c ****         imu_interface_write_8bit_register(interface, IMU963RA_DEV_ADDR, IMU963RA_MASTER_CONFIG , 0x
 127              		.loc 1 222 9
 128 00a0 4C23     		movs	r3, #76
 129 00a2 1422     		movs	r2, #20
 130 00a4 6B21     		movs	r1, #107
 131 00a6 0398     		ldr	r0, [sp, #12]
 132 00a8 FFF7FEFF 		bl	imu_interface_write_8bit_register
 223:libraries/zf_device/zf_device_imu963ra.c **** 
 224:libraries/zf_device/zf_device_imu963ra.c ****         return_state = IMU963RA_OPERATION_DONE;
 133              		.loc 1 224 22
 134 00ac 0023     		movs	r3, #0
 135 00ae 8DF81730 		strb	r3, [sp, #23]
 136              	.L7:
 225:libraries/zf_device/zf_device_imu963ra.c ****         // ńŁēÕŠģķĆÜĶ«»µłÉÕŖ¤
 226:libraries/zf_device/zf_device_imu963ra.c ****         do
 227:libraries/zf_device/zf_device_imu963ra.c ****         {
 228:libraries/zf_device/zf_device_imu963ra.c ****             imu_interface_read_8bit_register(
 229:libraries/zf_device/zf_device_imu963ra.c ****                 interface, IMU963RA_DEV_ADDR,
 230:libraries/zf_device/zf_device_imu963ra.c ****                 (IMU_INTERFACE_TYPE_SPI == interface->interface_type)
 137              		.loc 1 230 53
 138 00b2 039B     		ldr	r3, [sp, #12]
 139 00b4 1B78     		ldrb	r3, [r3]	@ zero_extendqisi2
 228:libraries/zf_device/zf_device_imu963ra.c ****                 interface, IMU963RA_DEV_ADDR,
 140              		.loc 1 228 13
 141 00b6 012B     		cmp	r3, #1
 142 00b8 01D1     		bne	.L4
 228:libraries/zf_device/zf_device_imu963ra.c ****                 interface, IMU963RA_DEV_ADDR,
 143              		.loc 1 228 13 is_stmt 0 discriminator 1
 144 00ba A222     		movs	r2, #162
 145 00bc 00E0     		b	.L5
 146              	.L4:
 228:libraries/zf_device/zf_device_imu963ra.c ****                 interface, IMU963RA_DEV_ADDR,
 147              		.loc 1 228 13 discriminator 2
 148 00be 2222     		movs	r2, #34
 149              	.L5:
 228:libraries/zf_device/zf_device_imu963ra.c ****                 interface, IMU963RA_DEV_ADDR,
 150              		.loc 1 228 13 discriminator 4
 151 00c0 0DF11303 		add	r3, sp, #19
 152 00c4 6B21     		movs	r1, #107
 153 00c6 0398     		ldr	r0, [sp, #12]
 154 00c8 FFF7FEFF 		bl	imu_interface_read_8bit_register
 231:libraries/zf_device/zf_device_imu963ra.c ****                     ? (IMU963RA_STATUS_MASTER | IMU963RA_SPI_R)
 232:libraries/zf_device/zf_device_imu963ra.c ****                     : IMU963RA_STATUS_MASTER,
 233:libraries/zf_device/zf_device_imu963ra.c ****                 &temp_data);
 234:libraries/zf_device/zf_device_imu963ra.c ****             if(IMU963RA_TIMEOUT_COUNT < timeout_count ++)
 155              		.loc 1 234 55 is_stmt 1 discriminator 4
 156 00cc BDF81430 		ldrh	r3, [sp, #20]
 157 00d0 5A1C     		adds	r2, r3, #1
 158 00d2 ADF81420 		strh	r2, [sp, #20]	@ movhi
 159              		.loc 1 234 15 discriminator 4
 160 00d6 202B     		cmp	r3, #32
 161 00d8 03D9     		bls	.L6
 235:libraries/zf_device/zf_device_imu963ra.c ****             {
 236:libraries/zf_device/zf_device_imu963ra.c ****                 return_state = IMU963RA_ERROR_MAG_WRITE_RIGESTER_ERROR;
 162              		.loc 1 236 30
 163 00da 2E23     		movs	r3, #46
 164 00dc 8DF81730 		strb	r3, [sp, #23]
 237:libraries/zf_device/zf_device_imu963ra.c ****                 break;
 165              		.loc 1 237 17
 166 00e0 07E0     		b	.L3
 167              	.L6:
 238:libraries/zf_device/zf_device_imu963ra.c ****             }
 239:libraries/zf_device/zf_device_imu963ra.c ****             imu_interface_delay_ms(1);
 168              		.loc 1 239 13
 169 00e2 0120     		movs	r0, #1
 170 00e4 FFF7FEFF 		bl	zf_delay_ms
 240:libraries/zf_device/zf_device_imu963ra.c ****         }while(!(0x80 & temp_data));
 171              		.loc 1 240 16
 172 00e8 9DF81330 		ldrb	r3, [sp, #19]	@ zero_extendqisi2
 173 00ec 5BB2     		sxtb	r3, r3
 174              		.loc 1 240 9
 175 00ee 002B     		cmp	r3, #0
 176 00f0 DFDA     		bge	.L7
 177              	.L3:
 241:libraries/zf_device/zf_device_imu963ra.c ****     }while(0);
 242:libraries/zf_device/zf_device_imu963ra.c **** 
 243:libraries/zf_device/zf_device_imu963ra.c ****     return return_state;
 178              		.loc 1 243 12
 179 00f2 9DF81730 		ldrb	r3, [sp, #23]	@ zero_extendqisi2
 244:libraries/zf_device/zf_device_imu963ra.c **** }
 180              		.loc 1 244 1
 181 00f6 1846     		mov	r0, r3
 182 00f8 07B0     		add	sp, sp, #28
 183              		.cfi_def_cfa_offset 4
 184              		@ sp needed
 185 00fa 5DF804FB 		ldr	pc, [sp], #4
 186              	.L10:
 187 00fe 00BF     		.align	2
 188              	.L9:
 189 0100 00000000 		.word	.LC3
 190              		.cfi_endproc
 191              	.LFE482:
 193              		.section	.text.imu963ra_read_mag_register,"ax",%progbits
 194              		.align	1
 195              		.p2align 4,,15
 196              		.syntax unified
 197              		.thumb
 198              		.thumb_func
 200              	imu963ra_read_mag_register:
 201              	.LFB483:
 245:libraries/zf_device/zf_device_imu963ra.c **** 
 246:libraries/zf_device/zf_device_imu963ra.c **** 
 247:libraries/zf_device/zf_device_imu963ra.c **** //-------------------------------------------------------------------------------------------------
 248:libraries/zf_device/zf_device_imu963ra.c **** // ÕćĮµĢ░ń«Ćõ╗ŗ     IMU963RA õĮ£õĖ║ IIC õĖ╗µ£║ÕÉæńŻüÕŖøĶ«ĪĶ»╗µĢ░µŹ«
 249:libraries/zf_device/zf_device_imu963ra.c **** // ÕÅéµĢ░Ķ»┤µśÄ     *interface      IMU963RA ńÜäķĆÜõ┐ĪµÄźÕÅŻÕ»╣Ķ▒ĪµīćķÆł
 250:libraries/zf_device/zf_device_imu963ra.c **** // ÕÅéµĢ░Ķ»┤µśÄ     addr            ńø«µĀćÕ£░ÕØĆ
 251:libraries/zf_device/zf_device_imu963ra.c **** // ÕÅéµĢ░Ķ»┤µśÄ     reg             ńø«µĀćÕ»äÕŁśÕÖ©
 252:libraries/zf_device/zf_device_imu963ra.c **** // ÕÅéµĢ░Ķ»┤µśÄ     *data           µĢ░µŹ«µīćķÆł
 253:libraries/zf_device/zf_device_imu963ra.c **** // Ķ┐öÕø×ÕÅéµĢ░     uint8           µōŹõĮ£ńŖČµĆü ZF_NO_ERROR / IMU963RA_OPERATION_DONE - Õ«īµłÉ ÕģČ
 254:libraries/zf_device/zf_device_imu963ra.c **** // õĮ┐ńö©ńż║õŠŗ     imu963ra_read_mag_register(IMU963RA_MAG_ADDR, IMU963RA_MAG_CHIP_ID);
 255:libraries/zf_device/zf_device_imu963ra.c **** // Õżćµ│©õ┐Īµü»     Õåģķā©Ķ░āńö©
 256:libraries/zf_device/zf_device_imu963ra.c **** //-------------------------------------------------------------------------------------------------
 257:libraries/zf_device/zf_device_imu963ra.c **** static uint8 imu963ra_read_mag_register (imu_interface_obj_struct *interface, uint8 addr, uint8 reg
 258:libraries/zf_device/zf_device_imu963ra.c **** {
 202              		.loc 1 258 1
 203              		.cfi_startproc
 204              		@ args = 0, pretend = 0, frame = 24
 205              		@ frame_needed = 0, uses_anonymous_args = 0
 206 0000 00B5     		push	{lr}
 207              		.cfi_def_cfa_offset 4
 208              		.cfi_offset 14, -4
 209 0002 87B0     		sub	sp, sp, #28
 210              		.cfi_def_cfa_offset 32
 211 0004 0390     		str	r0, [sp, #12]
 212 0006 0193     		str	r3, [sp, #4]
 213 0008 0B46     		mov	r3, r1
 214 000a 8DF80B30 		strb	r3, [sp, #11]
 215 000e 1346     		mov	r3, r2
 216 0010 8DF80A30 		strb	r3, [sp, #10]
 259:libraries/zf_device/zf_device_imu963ra.c ****     imu963ra_operation_state_enum   return_state = IMU963RA_ERROR_UNKNOW_ERROR;
 217              		.loc 1 259 37
 218 0014 0123     		movs	r3, #1
 219 0016 8DF81730 		strb	r3, [sp, #23]
 260:libraries/zf_device/zf_device_imu963ra.c **** 
 261:libraries/zf_device/zf_device_imu963ra.c ****     uint8   temp_data       = 0;
 220              		.loc 1 261 13
 221 001a 0023     		movs	r3, #0
 222 001c 8DF81330 		strb	r3, [sp, #19]
 262:libraries/zf_device/zf_device_imu963ra.c ****     uint16  timeout_count   = 0;
 223              		.loc 1 262 13
 224 0020 0023     		movs	r3, #0
 225 0022 ADF81430 		strh	r3, [sp, #20]	@ movhi
 263:libraries/zf_device/zf_device_imu963ra.c **** 
 264:libraries/zf_device/zf_device_imu963ra.c ****     do
 265:libraries/zf_device/zf_device_imu963ra.c ****     {
 266:libraries/zf_device/zf_device_imu963ra.c ****         addr = addr << 1;
 226              		.loc 1 266 14
 227 0026 9DF80B30 		ldrb	r3, [sp, #11]
 228 002a 5B00     		lsls	r3, r3, #1
 229 002c 8DF80B30 		strb	r3, [sp, #11]
 267:libraries/zf_device/zf_device_imu963ra.c ****         imu_interface_write_8bit_register(interface, IMU963RA_DEV_ADDR, IMU963RA_SLV0_ADD,        a
 230              		.loc 1 267 9
 231 0030 9DF80B30 		ldrb	r3, [sp, #11]
 232 0034 43F00103 		orr	r3, r3, #1
 233 0038 DBB2     		uxtb	r3, r3
 234 003a 1522     		movs	r2, #21
 235 003c 6B21     		movs	r1, #107
 236 003e 0398     		ldr	r0, [sp, #12]
 237 0040 FFF7FEFF 		bl	imu_interface_write_8bit_register
 268:libraries/zf_device/zf_device_imu963ra.c ****         imu_interface_write_8bit_register(interface, IMU963RA_DEV_ADDR, IMU963RA_SLV0_SUBADD,     r
 238              		.loc 1 268 9
 239 0044 9DF80A30 		ldrb	r3, [sp, #10]	@ zero_extendqisi2
 240 0048 1622     		movs	r2, #22
 241 004a 6B21     		movs	r1, #107
 242 004c 0398     		ldr	r0, [sp, #12]
 243 004e FFF7FEFF 		bl	imu_interface_write_8bit_register
 269:libraries/zf_device/zf_device_imu963ra.c ****         imu_interface_write_8bit_register(interface, IMU963RA_DEV_ADDR, IMU963RA_SLV0_CONFIG,     0
 244              		.loc 1 269 9
 245 0052 0123     		movs	r3, #1
 246 0054 1722     		movs	r2, #23
 247 0056 6B21     		movs	r1, #107
 248 0058 0398     		ldr	r0, [sp, #12]
 249 005a FFF7FEFF 		bl	imu_interface_write_8bit_register
 270:libraries/zf_device/zf_device_imu963ra.c ****         imu_interface_write_8bit_register(interface, IMU963RA_DEV_ADDR, IMU963RA_MASTER_CONFIG,   0
 250              		.loc 1 270 9
 251 005e 4C23     		movs	r3, #76
 252 0060 1422     		movs	r2, #20
 253 0062 6B21     		movs	r1, #107
 254 0064 0398     		ldr	r0, [sp, #12]
 255 0066 FFF7FEFF 		bl	imu_interface_write_8bit_register
 271:libraries/zf_device/zf_device_imu963ra.c **** 
 272:libraries/zf_device/zf_device_imu963ra.c ****         return_state = IMU963RA_OPERATION_DONE;
 256              		.loc 1 272 22
 257 006a 0023     		movs	r3, #0
 258 006c 8DF81730 		strb	r3, [sp, #23]
 259              	.L16:
 273:libraries/zf_device/zf_device_imu963ra.c ****         // ńŁēÕŠģķĆÜĶ«»µłÉÕŖ¤
 274:libraries/zf_device/zf_device_imu963ra.c ****         do
 275:libraries/zf_device/zf_device_imu963ra.c ****         {
 276:libraries/zf_device/zf_device_imu963ra.c ****             imu_interface_read_8bit_register(
 277:libraries/zf_device/zf_device_imu963ra.c ****                 interface, IMU963RA_DEV_ADDR,
 278:libraries/zf_device/zf_device_imu963ra.c ****                 (IMU_INTERFACE_TYPE_SPI == interface->interface_type)
 260              		.loc 1 278 53
 261 0070 039B     		ldr	r3, [sp, #12]
 262 0072 1B78     		ldrb	r3, [r3]	@ zero_extendqisi2
 276:libraries/zf_device/zf_device_imu963ra.c ****                 interface, IMU963RA_DEV_ADDR,
 263              		.loc 1 276 13
 264 0074 012B     		cmp	r3, #1
 265 0076 01D1     		bne	.L12
 276:libraries/zf_device/zf_device_imu963ra.c ****                 interface, IMU963RA_DEV_ADDR,
 266              		.loc 1 276 13 is_stmt 0 discriminator 1
 267 0078 A222     		movs	r2, #162
 268 007a 00E0     		b	.L13
 269              	.L12:
 276:libraries/zf_device/zf_device_imu963ra.c ****                 interface, IMU963RA_DEV_ADDR,
 270              		.loc 1 276 13 discriminator 2
 271 007c 2222     		movs	r2, #34
 272              	.L13:
 276:libraries/zf_device/zf_device_imu963ra.c ****                 interface, IMU963RA_DEV_ADDR,
 273              		.loc 1 276 13 discriminator 4
 274 007e 0DF11303 		add	r3, sp, #19
 275 0082 6B21     		movs	r1, #107
 276 0084 0398     		ldr	r0, [sp, #12]
 277 0086 FFF7FEFF 		bl	imu_interface_read_8bit_register
 279:libraries/zf_device/zf_device_imu963ra.c ****                     ? (IMU963RA_STATUS_MASTER | IMU963RA_SPI_R)
 280:libraries/zf_device/zf_device_imu963ra.c ****                     : IMU963RA_STATUS_MASTER,
 281:libraries/zf_device/zf_device_imu963ra.c ****                 &temp_data);
 282:libraries/zf_device/zf_device_imu963ra.c ****             if(IMU963RA_TIMEOUT_COUNT < timeout_count ++)
 278              		.loc 1 282 55 is_stmt 1 discriminator 4
 279 008a BDF81430 		ldrh	r3, [sp, #20]
 280 008e 5A1C     		adds	r2, r3, #1
 281 0090 ADF81420 		strh	r2, [sp, #20]	@ movhi
 282              		.loc 1 282 15 discriminator 4
 283 0094 202B     		cmp	r3, #32
 284 0096 03D9     		bls	.L14
 283:libraries/zf_device/zf_device_imu963ra.c ****             {
 284:libraries/zf_device/zf_device_imu963ra.c ****                 return_state = IMU963RA_ERROR_MAG_WRITE_RIGESTER_ERROR;
 285              		.loc 1 284 30
 286 0098 2E23     		movs	r3, #46
 287 009a 8DF81730 		strb	r3, [sp, #23]
 285:libraries/zf_device/zf_device_imu963ra.c ****                 break;
 288              		.loc 1 285 17
 289 009e 09E0     		b	.L15
 290              	.L14:
 286:libraries/zf_device/zf_device_imu963ra.c ****             }
 287:libraries/zf_device/zf_device_imu963ra.c ****             imu_interface_delay_ms(1);
 291              		.loc 1 287 13
 292 00a0 0120     		movs	r0, #1
 293 00a2 FFF7FEFF 		bl	zf_delay_ms
 288:libraries/zf_device/zf_device_imu963ra.c ****         }while(!(0x01 & temp_data));
 294              		.loc 1 288 16
 295 00a6 9DF81330 		ldrb	r3, [sp, #19]	@ zero_extendqisi2
 296 00aa 03F00103 		and	r3, r3, #1
 297 00ae DBB2     		uxtb	r3, r3
 298              		.loc 1 288 9
 299 00b0 002B     		cmp	r3, #0
 300 00b2 DDD0     		beq	.L16
 301              	.L15:
 289:libraries/zf_device/zf_device_imu963ra.c **** 
 290:libraries/zf_device/zf_device_imu963ra.c ****         imu_interface_read_8bit_register(
 291:libraries/zf_device/zf_device_imu963ra.c ****             interface, IMU963RA_DEV_ADDR, 
 292:libraries/zf_device/zf_device_imu963ra.c ****             (IMU_INTERFACE_TYPE_SPI == interface->interface_type)
 302              		.loc 1 292 49
 303 00b4 039B     		ldr	r3, [sp, #12]
 304 00b6 1B78     		ldrb	r3, [r3]	@ zero_extendqisi2
 290:libraries/zf_device/zf_device_imu963ra.c ****             interface, IMU963RA_DEV_ADDR, 
 305              		.loc 1 290 9
 306 00b8 012B     		cmp	r3, #1
 307 00ba 01D1     		bne	.L17
 290:libraries/zf_device/zf_device_imu963ra.c ****             interface, IMU963RA_DEV_ADDR, 
 308              		.loc 1 290 9 is_stmt 0 discriminator 1
 309 00bc 8222     		movs	r2, #130
 310 00be 00E0     		b	.L18
 311              	.L17:
 290:libraries/zf_device/zf_device_imu963ra.c ****             interface, IMU963RA_DEV_ADDR, 
 312              		.loc 1 290 9 discriminator 2
 313 00c0 0222     		movs	r2, #2
 314              	.L18:
 290:libraries/zf_device/zf_device_imu963ra.c ****             interface, IMU963RA_DEV_ADDR, 
 315              		.loc 1 290 9 discriminator 4
 316 00c2 019B     		ldr	r3, [sp, #4]
 317 00c4 6B21     		movs	r1, #107
 318 00c6 0398     		ldr	r0, [sp, #12]
 319 00c8 FFF7FEFF 		bl	imu_interface_read_8bit_register
 293:libraries/zf_device/zf_device_imu963ra.c ****                 ? (IMU963RA_SENSOR_HUB_1 | IMU963RA_SPI_R)
 294:libraries/zf_device/zf_device_imu963ra.c ****                 : IMU963RA_SENSOR_HUB_1,
 295:libraries/zf_device/zf_device_imu963ra.c ****             data);
 296:libraries/zf_device/zf_device_imu963ra.c ****     }while(0);
 297:libraries/zf_device/zf_device_imu963ra.c **** 
 298:libraries/zf_device/zf_device_imu963ra.c ****     return return_state;
 320              		.loc 1 298 12 is_stmt 1 discriminator 4
 321 00cc 9DF81730 		ldrb	r3, [sp, #23]	@ zero_extendqisi2
 299:libraries/zf_device/zf_device_imu963ra.c **** }
 322              		.loc 1 299 1 discriminator 4
 323 00d0 1846     		mov	r0, r3
 324 00d2 07B0     		add	sp, sp, #28
 325              		.cfi_def_cfa_offset 4
 326              		@ sp needed
 327 00d4 5DF804FB 		ldr	pc, [sp], #4
 328              		.cfi_endproc
 329              	.LFE483:
 331              		.section	.text.imu963ra_func_get_acc,"ax",%progbits
 332              		.align	1
 333              		.p2align 4,,15
 334              		.syntax unified
 335              		.thumb
 336              		.thumb_func
 338              	imu963ra_func_get_acc:
 339              	.LFB484:
 300:libraries/zf_device/zf_device_imu963ra.c **** 
 301:libraries/zf_device/zf_device_imu963ra.c **** //-------------------------------------------------------------------------------------------------
 302:libraries/zf_device/zf_device_imu963ra.c **** // ÕćĮµĢ░ń«Ćõ╗ŗ     ĶÄĘÕÅ¢ IMU963RA ÕŖĀķĆ¤Õ║”Ķ«ĪµĢ░µŹ« µĪåµ×ČµÄźÕÅŻ
 303:libraries/zf_device/zf_device_imu963ra.c **** // ÕÅéµĢ░Ķ»┤µśÄ     *interface          IMU963RA ńÜäķĆÜõ┐ĪµÄźÕÅŻÕ»╣Ķ▒ĪµīćķÆł
 304:libraries/zf_device/zf_device_imu963ra.c **** // ÕÅéµĢ░Ķ»┤µśÄ     *measurement_data   IMU963RA ńÜäµĄŗķćÅµĢ░µŹ«ń╝ōÕå▓µīćķÆł
 305:libraries/zf_device/zf_device_imu963ra.c **** // Ķ┐öÕø×ÕÅéµĢ░     uint8               µōŹõĮ£ńŖČµĆü ZF_NO_ERROR / IMU963RA_OPERATION_DONE - Õ«īµłÉ
 306:libraries/zf_device/zf_device_imu963ra.c **** // õĮ┐ńö©ńż║õŠŗ     imu963ra_func_get_acc(interface, data_buffer);
 307:libraries/zf_device/zf_device_imu963ra.c **** // Õżćµ│©õ┐Īµü»     µ£¼µÄźÕÅŻõĖ║õ╝Āµä¤ÕÖ©µĪåµ×ČµÄźÕÅŻ Õ╣ČõĖŹńø┤µÄźÕ»╣ńö©µłĘÕ╝ĆµöŠ
 308:libraries/zf_device/zf_device_imu963ra.c **** //-------------------------------------------------------------------------------------------------
 309:libraries/zf_device/zf_device_imu963ra.c **** static uint8 imu963ra_func_get_acc (imu_interface_obj_struct *interface, imu963ra_measurement_data_
 310:libraries/zf_device/zf_device_imu963ra.c **** {
 340              		.loc 1 310 1
 341              		.cfi_startproc
 342              		@ args = 0, pretend = 0, frame = 16
 343              		@ frame_needed = 0, uses_anonymous_args = 0
 344 0000 00B5     		push	{lr}
 345              		.cfi_def_cfa_offset 4
 346              		.cfi_offset 14, -4
 347 0002 87B0     		sub	sp, sp, #28
 348              		.cfi_def_cfa_offset 32
 349 0004 0390     		str	r0, [sp, #12]
 350 0006 0291     		str	r1, [sp, #8]
 311:libraries/zf_device/zf_device_imu963ra.c ****     imu963ra_operation_state_enum   return_state = IMU963RA_ERROR_UNKNOW_ERROR;
 351              		.loc 1 311 37
 352 0008 0123     		movs	r3, #1
 353 000a 8DF81730 		strb	r3, [sp, #23]
 354              	.LBB2:
 312:libraries/zf_device/zf_device_imu963ra.c **** 
 313:libraries/zf_device/zf_device_imu963ra.c ****     do
 314:libraries/zf_device/zf_device_imu963ra.c ****     {
 315:libraries/zf_device/zf_device_imu963ra.c ****         if(imu_interface_assert(NULL != measurement_data))
 355              		.loc 1 315 11
 356 000e 029B     		ldr	r3, [sp, #8]
 357 0010 002B     		cmp	r3, #0
 358 0012 15D1     		bne	.L21
 359              		.loc 1 315 12 discriminator 1
 360 0014 029B     		ldr	r3, [sp, #8]
 361 0016 002B     		cmp	r3, #0
 362 0018 14BF     		ite	ne
 363 001a 0123     		movne	r3, #1
 364 001c 0023     		moveq	r3, #0
 365 001e DBB2     		uxtb	r3, r3
 366 0020 1946     		mov	r1, r3
 367 0022 40F23B13 		movw	r3, #315
 368 0026 0093     		str	r3, [sp]
 369 0028 214B     		ldr	r3, .L26
 370 002a 0022     		movs	r2, #0
 371 002c 0220     		movs	r0, #2
 372 002e FFF7FEFF 		bl	debug_message_handler
 373 0032 0346     		mov	r3, r0
 374 0034 002B     		cmp	r3, #0
 375 0036 03D0     		beq	.L21
 316:libraries/zf_device/zf_device_imu963ra.c ****         {
 317:libraries/zf_device/zf_device_imu963ra.c ****             return_state = IMU963RA_ERROR_DATA_BUFFER_NULL;
 376              		.loc 1 317 26
 377 0038 2423     		movs	r3, #36
 378 003a 8DF81730 		strb	r3, [sp, #23]
 379 003e 31E0     		b	.L22
 380              	.L21:
 318:libraries/zf_device/zf_device_imu963ra.c ****             break;
 319:libraries/zf_device/zf_device_imu963ra.c ****         }
 320:libraries/zf_device/zf_device_imu963ra.c ****         uint8 data[6];
 321:libraries/zf_device/zf_device_imu963ra.c ****         imu_interface_read_8bit_registers(
 322:libraries/zf_device/zf_device_imu963ra.c ****             interface, IMU963RA_DEV_ADDR, 
 323:libraries/zf_device/zf_device_imu963ra.c ****             (IMU_INTERFACE_TYPE_SPI == interface->interface_type)
 381              		.loc 1 323 49
 382 0040 039B     		ldr	r3, [sp, #12]
 383 0042 1B78     		ldrb	r3, [r3]	@ zero_extendqisi2
 321:libraries/zf_device/zf_device_imu963ra.c ****             interface, IMU963RA_DEV_ADDR, 
 384              		.loc 1 321 9
 385 0044 012B     		cmp	r3, #1
 386 0046 01D1     		bne	.L23
 321:libraries/zf_device/zf_device_imu963ra.c ****             interface, IMU963RA_DEV_ADDR, 
 387              		.loc 1 321 9 is_stmt 0 discriminator 1
 388 0048 A822     		movs	r2, #168
 389 004a 00E0     		b	.L24
 390              	.L23:
 321:libraries/zf_device/zf_device_imu963ra.c ****             interface, IMU963RA_DEV_ADDR, 
 391              		.loc 1 321 9 discriminator 2
 392 004c 2822     		movs	r2, #40
 393              	.L24:
 321:libraries/zf_device/zf_device_imu963ra.c ****             interface, IMU963RA_DEV_ADDR, 
 394              		.loc 1 321 9 discriminator 4
 395 004e 04AB     		add	r3, sp, #16
 396 0050 0621     		movs	r1, #6
 397 0052 0091     		str	r1, [sp]
 398 0054 6B21     		movs	r1, #107
 399 0056 0398     		ldr	r0, [sp, #12]
 400 0058 FFF7FEFF 		bl	imu_interface_read_8bit_registers
 324:libraries/zf_device/zf_device_imu963ra.c ****                 ?   (IMU963RA_OUTX_L_A | IMU963RA_SPI_R)
 325:libraries/zf_device/zf_device_imu963ra.c ****                 :   IMU963RA_OUTX_L_A,
 326:libraries/zf_device/zf_device_imu963ra.c ****             data, 6);
 327:libraries/zf_device/zf_device_imu963ra.c ****         measurement_data->x = (int16)(((uint16)data[1] << 8 | data[0]));
 401              		.loc 1 327 52 is_stmt 1 discriminator 4
 402 005c 9DF81130 		ldrb	r3, [sp, #17]	@ zero_extendqisi2
 403              		.loc 1 327 56 discriminator 4
 404 0060 1B02     		lsls	r3, r3, #8
 405              		.loc 1 327 31 discriminator 4
 406 0062 1AB2     		sxth	r2, r3
 407              		.loc 1 327 67 discriminator 4
 408 0064 9DF81030 		ldrb	r3, [sp, #16]	@ zero_extendqisi2
 409 0068 1BB2     		sxth	r3, r3
 410              		.loc 1 327 31 discriminator 4
 411 006a 1343     		orrs	r3, r3, r2
 412 006c 1AB2     		sxth	r2, r3
 413              		.loc 1 327 29 discriminator 4
 414 006e 029B     		ldr	r3, [sp, #8]
 415 0070 1A80     		strh	r2, [r3]	@ movhi
 328:libraries/zf_device/zf_device_imu963ra.c ****         measurement_data->y = (int16)(((uint16)data[3] << 8 | data[2]));
 416              		.loc 1 328 52 discriminator 4
 417 0072 9DF81330 		ldrb	r3, [sp, #19]	@ zero_extendqisi2
 418              		.loc 1 328 56 discriminator 4
 419 0076 1B02     		lsls	r3, r3, #8
 420              		.loc 1 328 31 discriminator 4
 421 0078 1AB2     		sxth	r2, r3
 422              		.loc 1 328 67 discriminator 4
 423 007a 9DF81230 		ldrb	r3, [sp, #18]	@ zero_extendqisi2
 424 007e 1BB2     		sxth	r3, r3
 425              		.loc 1 328 31 discriminator 4
 426 0080 1343     		orrs	r3, r3, r2
 427 0082 1AB2     		sxth	r2, r3
 428              		.loc 1 328 29 discriminator 4
 429 0084 029B     		ldr	r3, [sp, #8]
 430 0086 5A80     		strh	r2, [r3, #2]	@ movhi
 329:libraries/zf_device/zf_device_imu963ra.c ****         measurement_data->z = (int16)(((uint16)data[5] << 8 | data[4]));
 431              		.loc 1 329 52 discriminator 4
 432 0088 9DF81530 		ldrb	r3, [sp, #21]	@ zero_extendqisi2
 433              		.loc 1 329 56 discriminator 4
 434 008c 1B02     		lsls	r3, r3, #8
 435              		.loc 1 329 31 discriminator 4
 436 008e 1AB2     		sxth	r2, r3
 437              		.loc 1 329 67 discriminator 4
 438 0090 9DF81430 		ldrb	r3, [sp, #20]	@ zero_extendqisi2
 439 0094 1BB2     		sxth	r3, r3
 440              		.loc 1 329 31 discriminator 4
 441 0096 1343     		orrs	r3, r3, r2
 442 0098 1AB2     		sxth	r2, r3
 443              		.loc 1 329 29 discriminator 4
 444 009a 029B     		ldr	r3, [sp, #8]
 445 009c 9A80     		strh	r2, [r3, #4]	@ movhi
 330:libraries/zf_device/zf_device_imu963ra.c **** 
 331:libraries/zf_device/zf_device_imu963ra.c ****         return_state = IMU963RA_OPERATION_DONE;
 446              		.loc 1 331 22 discriminator 4
 447 009e 0023     		movs	r3, #0
 448 00a0 8DF81730 		strb	r3, [sp, #23]
 449              	.L22:
 450              	.LBE2:
 332:libraries/zf_device/zf_device_imu963ra.c ****     }while(0);
 333:libraries/zf_device/zf_device_imu963ra.c **** 
 334:libraries/zf_device/zf_device_imu963ra.c ****     return return_state;
 451              		.loc 1 334 12
 452 00a4 9DF81730 		ldrb	r3, [sp, #23]	@ zero_extendqisi2
 335:libraries/zf_device/zf_device_imu963ra.c **** }
 453              		.loc 1 335 1
 454 00a8 1846     		mov	r0, r3
 455 00aa 07B0     		add	sp, sp, #28
 456              		.cfi_def_cfa_offset 4
 457              		@ sp needed
 458 00ac 5DF804FB 		ldr	pc, [sp], #4
 459              	.L27:
 460              		.align	2
 461              	.L26:
 462 00b0 00000000 		.word	.LC3
 463              		.cfi_endproc
 464              	.LFE484:
 466              		.section	.text.imu963ra_func_get_gyro,"ax",%progbits
 467              		.align	1
 468              		.p2align 4,,15
 469              		.syntax unified
 470              		.thumb
 471              		.thumb_func
 473              	imu963ra_func_get_gyro:
 474              	.LFB485:
 336:libraries/zf_device/zf_device_imu963ra.c **** 
 337:libraries/zf_device/zf_device_imu963ra.c **** //-------------------------------------------------------------------------------------------------
 338:libraries/zf_device/zf_device_imu963ra.c **** // ÕćĮµĢ░ń«Ćõ╗ŗ     ĶÄĘÕÅ¢ IMU963RA ķÖĆĶ×║õ╗¬µĢ░µŹ« µĪåµ×ČµÄźÕÅŻ
 339:libraries/zf_device/zf_device_imu963ra.c **** // ÕÅéµĢ░Ķ»┤µśÄ     *interface          IMU963RA ńÜäķĆÜõ┐ĪµÄźÕÅŻÕ»╣Ķ▒ĪµīćķÆł
 340:libraries/zf_device/zf_device_imu963ra.c **** // ÕÅéµĢ░Ķ»┤µśÄ     *measurement_data   IMU963RA ńÜäµĄŗķćÅµĢ░µŹ«ń╝ōÕå▓µīćķÆł
 341:libraries/zf_device/zf_device_imu963ra.c **** // Ķ┐öÕø×ÕÅéµĢ░     uint8               µōŹõĮ£ńŖČµĆü ZF_NO_ERROR / IMU963RA_OPERATION_DONE - Õ«īµłÉ
 342:libraries/zf_device/zf_device_imu963ra.c **** // õĮ┐ńö©ńż║õŠŗ     imu963ra_func_get_gyro(interface, data_buffer);
 343:libraries/zf_device/zf_device_imu963ra.c **** // Õżćµ│©õ┐Īµü»     µ£¼µÄźÕÅŻõĖ║õ╝Āµä¤ÕÖ©µĪåµ×ČµÄźÕÅŻ Õ╣ČõĖŹńø┤µÄźÕ»╣ńö©µłĘÕ╝ĆµöŠ
 344:libraries/zf_device/zf_device_imu963ra.c **** //-------------------------------------------------------------------------------------------------
 345:libraries/zf_device/zf_device_imu963ra.c **** static uint8 imu963ra_func_get_gyro (imu_interface_obj_struct *interface, imu963ra_measurement_data
 346:libraries/zf_device/zf_device_imu963ra.c **** {
 475              		.loc 1 346 1
 476              		.cfi_startproc
 477              		@ args = 0, pretend = 0, frame = 16
 478              		@ frame_needed = 0, uses_anonymous_args = 0
 479 0000 00B5     		push	{lr}
 480              		.cfi_def_cfa_offset 4
 481              		.cfi_offset 14, -4
 482 0002 87B0     		sub	sp, sp, #28
 483              		.cfi_def_cfa_offset 32
 484 0004 0390     		str	r0, [sp, #12]
 485 0006 0291     		str	r1, [sp, #8]
 347:libraries/zf_device/zf_device_imu963ra.c ****     imu963ra_operation_state_enum   return_state = IMU963RA_ERROR_UNKNOW_ERROR;
 486              		.loc 1 347 37
 487 0008 0123     		movs	r3, #1
 488 000a 8DF81730 		strb	r3, [sp, #23]
 489              	.LBB3:
 348:libraries/zf_device/zf_device_imu963ra.c **** 
 349:libraries/zf_device/zf_device_imu963ra.c ****     do
 350:libraries/zf_device/zf_device_imu963ra.c ****     {
 351:libraries/zf_device/zf_device_imu963ra.c ****         if(imu_interface_assert(NULL != measurement_data))
 490              		.loc 1 351 11
 491 000e 029B     		ldr	r3, [sp, #8]
 492 0010 002B     		cmp	r3, #0
 493 0012 15D1     		bne	.L29
 494              		.loc 1 351 12 discriminator 1
 495 0014 029B     		ldr	r3, [sp, #8]
 496 0016 002B     		cmp	r3, #0
 497 0018 14BF     		ite	ne
 498 001a 0123     		movne	r3, #1
 499 001c 0023     		moveq	r3, #0
 500 001e DBB2     		uxtb	r3, r3
 501 0020 1946     		mov	r1, r3
 502 0022 40F25F13 		movw	r3, #351
 503 0026 0093     		str	r3, [sp]
 504 0028 214B     		ldr	r3, .L34
 505 002a 0022     		movs	r2, #0
 506 002c 0220     		movs	r0, #2
 507 002e FFF7FEFF 		bl	debug_message_handler
 508 0032 0346     		mov	r3, r0
 509 0034 002B     		cmp	r3, #0
 510 0036 03D0     		beq	.L29
 352:libraries/zf_device/zf_device_imu963ra.c ****         {
 353:libraries/zf_device/zf_device_imu963ra.c ****             return_state = IMU963RA_ERROR_DATA_BUFFER_NULL;
 511              		.loc 1 353 26
 512 0038 2423     		movs	r3, #36
 513 003a 8DF81730 		strb	r3, [sp, #23]
 514 003e 31E0     		b	.L30
 515              	.L29:
 354:libraries/zf_device/zf_device_imu963ra.c ****             break;
 355:libraries/zf_device/zf_device_imu963ra.c ****         }
 356:libraries/zf_device/zf_device_imu963ra.c ****         uint8 data[6];
 357:libraries/zf_device/zf_device_imu963ra.c ****         imu_interface_read_8bit_registers(
 358:libraries/zf_device/zf_device_imu963ra.c ****             interface, IMU963RA_DEV_ADDR, 
 359:libraries/zf_device/zf_device_imu963ra.c ****             (IMU_INTERFACE_TYPE_SPI == interface->interface_type)
 516              		.loc 1 359 49
 517 0040 039B     		ldr	r3, [sp, #12]
 518 0042 1B78     		ldrb	r3, [r3]	@ zero_extendqisi2
 357:libraries/zf_device/zf_device_imu963ra.c ****             interface, IMU963RA_DEV_ADDR, 
 519              		.loc 1 357 9
 520 0044 012B     		cmp	r3, #1
 521 0046 01D1     		bne	.L31
 357:libraries/zf_device/zf_device_imu963ra.c ****             interface, IMU963RA_DEV_ADDR, 
 522              		.loc 1 357 9 is_stmt 0 discriminator 1
 523 0048 A222     		movs	r2, #162
 524 004a 00E0     		b	.L32
 525              	.L31:
 357:libraries/zf_device/zf_device_imu963ra.c ****             interface, IMU963RA_DEV_ADDR, 
 526              		.loc 1 357 9 discriminator 2
 527 004c 2222     		movs	r2, #34
 528              	.L32:
 357:libraries/zf_device/zf_device_imu963ra.c ****             interface, IMU963RA_DEV_ADDR, 
 529              		.loc 1 357 9 discriminator 4
 530 004e 04AB     		add	r3, sp, #16
 531 0050 0621     		movs	r1, #6
 532 0052 0091     		str	r1, [sp]
 533 0054 6B21     		movs	r1, #107
 534 0056 0398     		ldr	r0, [sp, #12]
 535 0058 FFF7FEFF 		bl	imu_interface_read_8bit_registers
 360:libraries/zf_device/zf_device_imu963ra.c ****                 ?   (IMU963RA_OUTX_L_G | IMU963RA_SPI_R)
 361:libraries/zf_device/zf_device_imu963ra.c ****                 :   IMU963RA_OUTX_L_G,
 362:libraries/zf_device/zf_device_imu963ra.c ****             data, 6);
 363:libraries/zf_device/zf_device_imu963ra.c ****         measurement_data->x = (int16)(((uint16)data[1] << 8 | data[0]));
 536              		.loc 1 363 52 is_stmt 1 discriminator 4
 537 005c 9DF81130 		ldrb	r3, [sp, #17]	@ zero_extendqisi2
 538              		.loc 1 363 56 discriminator 4
 539 0060 1B02     		lsls	r3, r3, #8
 540              		.loc 1 363 31 discriminator 4
 541 0062 1AB2     		sxth	r2, r3
 542              		.loc 1 363 67 discriminator 4
 543 0064 9DF81030 		ldrb	r3, [sp, #16]	@ zero_extendqisi2
 544 0068 1BB2     		sxth	r3, r3
 545              		.loc 1 363 31 discriminator 4
 546 006a 1343     		orrs	r3, r3, r2
 547 006c 1AB2     		sxth	r2, r3
 548              		.loc 1 363 29 discriminator 4
 549 006e 029B     		ldr	r3, [sp, #8]
 550 0070 1A80     		strh	r2, [r3]	@ movhi
 364:libraries/zf_device/zf_device_imu963ra.c ****         measurement_data->y = (int16)(((uint16)data[3] << 8 | data[2]));
 551              		.loc 1 364 52 discriminator 4
 552 0072 9DF81330 		ldrb	r3, [sp, #19]	@ zero_extendqisi2
 553              		.loc 1 364 56 discriminator 4
 554 0076 1B02     		lsls	r3, r3, #8
 555              		.loc 1 364 31 discriminator 4
 556 0078 1AB2     		sxth	r2, r3
 557              		.loc 1 364 67 discriminator 4
 558 007a 9DF81230 		ldrb	r3, [sp, #18]	@ zero_extendqisi2
 559 007e 1BB2     		sxth	r3, r3
 560              		.loc 1 364 31 discriminator 4
 561 0080 1343     		orrs	r3, r3, r2
 562 0082 1AB2     		sxth	r2, r3
 563              		.loc 1 364 29 discriminator 4
 564 0084 029B     		ldr	r3, [sp, #8]
 565 0086 5A80     		strh	r2, [r3, #2]	@ movhi
 365:libraries/zf_device/zf_device_imu963ra.c ****         measurement_data->z = (int16)(((uint16)data[5] << 8 | data[4]));
 566              		.loc 1 365 52 discriminator 4
 567 0088 9DF81530 		ldrb	r3, [sp, #21]	@ zero_extendqisi2
 568              		.loc 1 365 56 discriminator 4
 569 008c 1B02     		lsls	r3, r3, #8
 570              		.loc 1 365 31 discriminator 4
 571 008e 1AB2     		sxth	r2, r3
 572              		.loc 1 365 67 discriminator 4
 573 0090 9DF81430 		ldrb	r3, [sp, #20]	@ zero_extendqisi2
 574 0094 1BB2     		sxth	r3, r3
 575              		.loc 1 365 31 discriminator 4
 576 0096 1343     		orrs	r3, r3, r2
 577 0098 1AB2     		sxth	r2, r3
 578              		.loc 1 365 29 discriminator 4
 579 009a 029B     		ldr	r3, [sp, #8]
 580 009c 9A80     		strh	r2, [r3, #4]	@ movhi
 366:libraries/zf_device/zf_device_imu963ra.c **** 
 367:libraries/zf_device/zf_device_imu963ra.c ****         return_state = IMU963RA_OPERATION_DONE;
 581              		.loc 1 367 22 discriminator 4
 582 009e 0023     		movs	r3, #0
 583 00a0 8DF81730 		strb	r3, [sp, #23]
 584              	.L30:
 585              	.LBE3:
 368:libraries/zf_device/zf_device_imu963ra.c ****     }while(0);
 369:libraries/zf_device/zf_device_imu963ra.c **** 
 370:libraries/zf_device/zf_device_imu963ra.c ****     return return_state;
 586              		.loc 1 370 12
 587 00a4 9DF81730 		ldrb	r3, [sp, #23]	@ zero_extendqisi2
 371:libraries/zf_device/zf_device_imu963ra.c **** }
 588              		.loc 1 371 1
 589 00a8 1846     		mov	r0, r3
 590 00aa 07B0     		add	sp, sp, #28
 591              		.cfi_def_cfa_offset 4
 592              		@ sp needed
 593 00ac 5DF804FB 		ldr	pc, [sp], #4
 594              	.L35:
 595              		.align	2
 596              	.L34:
 597 00b0 00000000 		.word	.LC3
 598              		.cfi_endproc
 599              	.LFE485:
 601              		.section	.text.imu963ra_func_get_mag,"ax",%progbits
 602              		.align	1
 603              		.p2align 4,,15
 604              		.syntax unified
 605              		.thumb
 606              		.thumb_func
 608              	imu963ra_func_get_mag:
 609              	.LFB486:
 372:libraries/zf_device/zf_device_imu963ra.c **** 
 373:libraries/zf_device/zf_device_imu963ra.c **** //-------------------------------------------------------------------------------------------------
 374:libraries/zf_device/zf_device_imu963ra.c **** // ÕćĮµĢ░ń«Ćõ╗ŗ     ĶÄĘÕÅ¢ IMU963RA Õ£░ńŻüĶ«ĪµĢ░µŹ« µĪåµ×ČµÄźÕÅŻ
 375:libraries/zf_device/zf_device_imu963ra.c **** // ÕÅéµĢ░Ķ»┤µśÄ     *interface          IMU963RA ńÜäķĆÜõ┐ĪµÄźÕÅŻÕ»╣Ķ▒ĪµīćķÆł
 376:libraries/zf_device/zf_device_imu963ra.c **** // ÕÅéµĢ░Ķ»┤µśÄ     *measurement_data   IMU963RA ńÜäµĄŗķćÅµĢ░µŹ«ń╝ōÕå▓µīćķÆł
 377:libraries/zf_device/zf_device_imu963ra.c **** // Ķ┐öÕø×ÕÅéµĢ░     uint8               µōŹõĮ£ńŖČµĆü ZF_NO_ERROR / IMU963RA_OPERATION_DONE - Õ«īµłÉ
 378:libraries/zf_device/zf_device_imu963ra.c **** // õĮ┐ńö©ńż║õŠŗ     imu963ra_func_get_mag(interface, data_buffer);
 379:libraries/zf_device/zf_device_imu963ra.c **** // Õżćµ│©õ┐Īµü»     µ£¼µÄźÕÅŻõĖ║õ╝Āµä¤ÕÖ©µĪåµ×ČµÄźÕÅŻ Õ╣ČõĖŹńø┤µÄźÕ»╣ńö©µłĘÕ╝ĆµöŠ
 380:libraries/zf_device/zf_device_imu963ra.c **** //-------------------------------------------------------------------------------------------------
 381:libraries/zf_device/zf_device_imu963ra.c **** static uint8 imu963ra_func_get_mag (imu_interface_obj_struct *interface, imu963ra_measurement_data_
 382:libraries/zf_device/zf_device_imu963ra.c **** {
 610              		.loc 1 382 1
 611              		.cfi_startproc
 612              		@ args = 0, pretend = 0, frame = 16
 613              		@ frame_needed = 0, uses_anonymous_args = 0
 614 0000 00B5     		push	{lr}
 615              		.cfi_def_cfa_offset 4
 616              		.cfi_offset 14, -4
 617 0002 87B0     		sub	sp, sp, #28
 618              		.cfi_def_cfa_offset 32
 619 0004 0390     		str	r0, [sp, #12]
 620 0006 0291     		str	r1, [sp, #8]
 383:libraries/zf_device/zf_device_imu963ra.c ****     imu963ra_operation_state_enum   return_state = IMU963RA_ERROR_UNKNOW_ERROR;
 621              		.loc 1 383 37
 622 0008 0123     		movs	r3, #1
 623 000a 8DF81730 		strb	r3, [sp, #23]
 384:libraries/zf_device/zf_device_imu963ra.c **** 
 385:libraries/zf_device/zf_device_imu963ra.c ****     uint8   temp_data       = 0;
 624              		.loc 1 385 13
 625 000e 0023     		movs	r3, #0
 626 0010 8DF81630 		strb	r3, [sp, #22]
 627              	.LBB4:
 386:libraries/zf_device/zf_device_imu963ra.c **** 
 387:libraries/zf_device/zf_device_imu963ra.c ****     do
 388:libraries/zf_device/zf_device_imu963ra.c ****     {
 389:libraries/zf_device/zf_device_imu963ra.c ****         if(imu_interface_assert(NULL != measurement_data))
 628              		.loc 1 389 11
 629 0014 029B     		ldr	r3, [sp, #8]
 630 0016 002B     		cmp	r3, #0
 631 0018 15D1     		bne	.L37
 632              		.loc 1 389 12 discriminator 1
 633 001a 029B     		ldr	r3, [sp, #8]
 634 001c 002B     		cmp	r3, #0
 635 001e 14BF     		ite	ne
 636 0020 0123     		movne	r3, #1
 637 0022 0023     		moveq	r3, #0
 638 0024 DBB2     		uxtb	r3, r3
 639 0026 1946     		mov	r1, r3
 640 0028 40F28513 		movw	r3, #389
 641 002c 0093     		str	r3, [sp]
 642 002e 324B     		ldr	r3, .L45
 643 0030 0022     		movs	r2, #0
 644 0032 0220     		movs	r0, #2
 645 0034 FFF7FEFF 		bl	debug_message_handler
 646 0038 0346     		mov	r3, r0
 647 003a 002B     		cmp	r3, #0
 648 003c 03D0     		beq	.L37
 390:libraries/zf_device/zf_device_imu963ra.c ****         {
 391:libraries/zf_device/zf_device_imu963ra.c ****             return_state = IMU963RA_ERROR_DATA_BUFFER_NULL;
 649              		.loc 1 391 26
 650 003e 2423     		movs	r3, #36
 651 0040 8DF81730 		strb	r3, [sp, #23]
 652 0044 51E0     		b	.L38
 653              	.L37:
 392:libraries/zf_device/zf_device_imu963ra.c ****             break;
 393:libraries/zf_device/zf_device_imu963ra.c ****         }
 394:libraries/zf_device/zf_device_imu963ra.c ****         uint8 data[6];
 395:libraries/zf_device/zf_device_imu963ra.c ****         imu_interface_write_8bit_register(interface, IMU963RA_DEV_ADDR, IMU963RA_FUNC_CFG_ACCESS, 0
 654              		.loc 1 395 9
 655 0046 4023     		movs	r3, #64
 656 0048 0122     		movs	r2, #1
 657 004a 6B21     		movs	r1, #107
 658 004c 0398     		ldr	r0, [sp, #12]
 659 004e FFF7FEFF 		bl	imu_interface_write_8bit_register
 396:libraries/zf_device/zf_device_imu963ra.c ****         imu_interface_read_8bit_register(
 397:libraries/zf_device/zf_device_imu963ra.c ****             interface, IMU963RA_DEV_ADDR, 
 398:libraries/zf_device/zf_device_imu963ra.c ****             (IMU_INTERFACE_TYPE_SPI == interface->interface_type)
 660              		.loc 1 398 49
 661 0052 039B     		ldr	r3, [sp, #12]
 662 0054 1B78     		ldrb	r3, [r3]	@ zero_extendqisi2
 396:libraries/zf_device/zf_device_imu963ra.c ****         imu_interface_read_8bit_register(
 663              		.loc 1 396 9
 664 0056 012B     		cmp	r3, #1
 665 0058 01D1     		bne	.L39
 396:libraries/zf_device/zf_device_imu963ra.c ****         imu_interface_read_8bit_register(
 666              		.loc 1 396 9 is_stmt 0 discriminator 1
 667 005a A222     		movs	r2, #162
 668 005c 00E0     		b	.L40
 669              	.L39:
 396:libraries/zf_device/zf_device_imu963ra.c ****         imu_interface_read_8bit_register(
 670              		.loc 1 396 9 discriminator 2
 671 005e 2222     		movs	r2, #34
 672              	.L40:
 396:libraries/zf_device/zf_device_imu963ra.c ****         imu_interface_read_8bit_register(
 673              		.loc 1 396 9 discriminator 4
 674 0060 0DF11603 		add	r3, sp, #22
 675 0064 6B21     		movs	r1, #107
 676 0066 0398     		ldr	r0, [sp, #12]
 677 0068 FFF7FEFF 		bl	imu_interface_read_8bit_register
 399:libraries/zf_device/zf_device_imu963ra.c ****                 ? (IMU963RA_STATUS_MASTER | IMU963RA_SPI_R)
 400:libraries/zf_device/zf_device_imu963ra.c ****                 : IMU963RA_STATUS_MASTER,
 401:libraries/zf_device/zf_device_imu963ra.c ****             &temp_data);
 402:libraries/zf_device/zf_device_imu963ra.c ****         if(0x01 & temp_data)
 678              		.loc 1 402 12 is_stmt 1 discriminator 4
 679 006c 9DF81630 		ldrb	r3, [sp, #22]	@ zero_extendqisi2
 680 0070 03F00103 		and	r3, r3, #1
 681 0074 DBB2     		uxtb	r3, r3
 682              		.loc 1 402 11 discriminator 4
 683 0076 002B     		cmp	r3, #0
 684 0078 2ED0     		beq	.L41
 403:libraries/zf_device/zf_device_imu963ra.c ****         {
 404:libraries/zf_device/zf_device_imu963ra.c ****             imu_interface_read_8bit_registers(
 405:libraries/zf_device/zf_device_imu963ra.c ****                 interface, IMU963RA_DEV_ADDR, 
 406:libraries/zf_device/zf_device_imu963ra.c ****                 (IMU_INTERFACE_TYPE_SPI == interface->interface_type)
 685              		.loc 1 406 53
 686 007a 039B     		ldr	r3, [sp, #12]
 687 007c 1B78     		ldrb	r3, [r3]	@ zero_extendqisi2
 404:libraries/zf_device/zf_device_imu963ra.c ****                 interface, IMU963RA_DEV_ADDR, 
 688              		.loc 1 404 13
 689 007e 012B     		cmp	r3, #1
 690 0080 01D1     		bne	.L42
 404:libraries/zf_device/zf_device_imu963ra.c ****                 interface, IMU963RA_DEV_ADDR, 
 691              		.loc 1 404 13 is_stmt 0 discriminator 1
 692 0082 8222     		movs	r2, #130
 693 0084 00E0     		b	.L43
 694              	.L42:
 404:libraries/zf_device/zf_device_imu963ra.c ****                 interface, IMU963RA_DEV_ADDR, 
 695              		.loc 1 404 13 discriminator 2
 696 0086 0222     		movs	r2, #2
 697              	.L43:
 404:libraries/zf_device/zf_device_imu963ra.c ****                 interface, IMU963RA_DEV_ADDR, 
 698              		.loc 1 404 13 discriminator 4
 699 0088 04AB     		add	r3, sp, #16
 700 008a 0621     		movs	r1, #6
 701 008c 0091     		str	r1, [sp]
 702 008e 6B21     		movs	r1, #107
 703 0090 0398     		ldr	r0, [sp, #12]
 704 0092 FFF7FEFF 		bl	imu_interface_read_8bit_registers
 407:libraries/zf_device/zf_device_imu963ra.c ****                     ?   (IMU963RA_SENSOR_HUB_1 | IMU963RA_SPI_R)
 408:libraries/zf_device/zf_device_imu963ra.c ****                     :   IMU963RA_SENSOR_HUB_1,
 409:libraries/zf_device/zf_device_imu963ra.c ****                 data, 6);
 410:libraries/zf_device/zf_device_imu963ra.c ****             measurement_data->x = (int16)(((uint16)data[1] << 8 | data[0]));
 705              		.loc 1 410 56 is_stmt 1 discriminator 4
 706 0096 9DF81130 		ldrb	r3, [sp, #17]	@ zero_extendqisi2
 707              		.loc 1 410 60 discriminator 4
 708 009a 1B02     		lsls	r3, r3, #8
 709              		.loc 1 410 35 discriminator 4
 710 009c 1AB2     		sxth	r2, r3
 711              		.loc 1 410 71 discriminator 4
 712 009e 9DF81030 		ldrb	r3, [sp, #16]	@ zero_extendqisi2
 713 00a2 1BB2     		sxth	r3, r3
 714              		.loc 1 410 35 discriminator 4
 715 00a4 1343     		orrs	r3, r3, r2
 716 00a6 1AB2     		sxth	r2, r3
 717              		.loc 1 410 33 discriminator 4
 718 00a8 029B     		ldr	r3, [sp, #8]
 719 00aa 1A80     		strh	r2, [r3]	@ movhi
 411:libraries/zf_device/zf_device_imu963ra.c ****             measurement_data->y = (int16)(((uint16)data[3] << 8 | data[2]));
 720              		.loc 1 411 56 discriminator 4
 721 00ac 9DF81330 		ldrb	r3, [sp, #19]	@ zero_extendqisi2
 722              		.loc 1 411 60 discriminator 4
 723 00b0 1B02     		lsls	r3, r3, #8
 724              		.loc 1 411 35 discriminator 4
 725 00b2 1AB2     		sxth	r2, r3
 726              		.loc 1 411 71 discriminator 4
 727 00b4 9DF81230 		ldrb	r3, [sp, #18]	@ zero_extendqisi2
 728 00b8 1BB2     		sxth	r3, r3
 729              		.loc 1 411 35 discriminator 4
 730 00ba 1343     		orrs	r3, r3, r2
 731 00bc 1AB2     		sxth	r2, r3
 732              		.loc 1 411 33 discriminator 4
 733 00be 029B     		ldr	r3, [sp, #8]
 734 00c0 5A80     		strh	r2, [r3, #2]	@ movhi
 412:libraries/zf_device/zf_device_imu963ra.c ****             measurement_data->z = (int16)(((uint16)data[5] << 8 | data[4]));
 735              		.loc 1 412 56 discriminator 4
 736 00c2 9DF81530 		ldrb	r3, [sp, #21]	@ zero_extendqisi2
 737              		.loc 1 412 60 discriminator 4
 738 00c6 1B02     		lsls	r3, r3, #8
 739              		.loc 1 412 35 discriminator 4
 740 00c8 1AB2     		sxth	r2, r3
 741              		.loc 1 412 71 discriminator 4
 742 00ca 9DF81430 		ldrb	r3, [sp, #20]	@ zero_extendqisi2
 743 00ce 1BB2     		sxth	r3, r3
 744              		.loc 1 412 35 discriminator 4
 745 00d0 1343     		orrs	r3, r3, r2
 746 00d2 1AB2     		sxth	r2, r3
 747              		.loc 1 412 33 discriminator 4
 748 00d4 029B     		ldr	r3, [sp, #8]
 749 00d6 9A80     		strh	r2, [r3, #4]	@ movhi
 750              	.L41:
 413:libraries/zf_device/zf_device_imu963ra.c ****         }
 414:libraries/zf_device/zf_device_imu963ra.c ****         imu_interface_write_8bit_register(interface, IMU963RA_DEV_ADDR, IMU963RA_FUNC_CFG_ACCESS, 0
 751              		.loc 1 414 9
 752 00d8 0023     		movs	r3, #0
 753 00da 0122     		movs	r2, #1
 754 00dc 6B21     		movs	r1, #107
 755 00de 0398     		ldr	r0, [sp, #12]
 756 00e0 FFF7FEFF 		bl	imu_interface_write_8bit_register
 415:libraries/zf_device/zf_device_imu963ra.c **** 
 416:libraries/zf_device/zf_device_imu963ra.c ****         return_state = IMU963RA_OPERATION_DONE;
 757              		.loc 1 416 22
 758 00e4 0023     		movs	r3, #0
 759 00e6 8DF81730 		strb	r3, [sp, #23]
 760              	.L38:
 761              	.LBE4:
 417:libraries/zf_device/zf_device_imu963ra.c ****     }while(0);
 418:libraries/zf_device/zf_device_imu963ra.c **** 
 419:libraries/zf_device/zf_device_imu963ra.c ****     return return_state;
 762              		.loc 1 419 12
 763 00ea 9DF81730 		ldrb	r3, [sp, #23]	@ zero_extendqisi2
 420:libraries/zf_device/zf_device_imu963ra.c **** }
 764              		.loc 1 420 1
 765 00ee 1846     		mov	r0, r3
 766 00f0 07B0     		add	sp, sp, #28
 767              		.cfi_def_cfa_offset 4
 768              		@ sp needed
 769 00f2 5DF804FB 		ldr	pc, [sp], #4
 770              	.L46:
 771 00f6 00BF     		.align	2
 772              	.L45:
 773 00f8 00000000 		.word	.LC3
 774              		.cfi_endproc
 775              	.LFE486:
 777              		.section	.rodata
 778 0029 000000   		.align	2
 779              	.LC4:
 780 002c 00000008 		.ascii	"\000\000\000\010\014\004"
 780      0C04
 781 0032 0000     		.align	2
 782              	.LC5:
 783 0034 00000200 		.ascii	"\000\000\002\000\004\010\014\001"
 783      04080C01 
 784              		.section	.text.imu963ra_func_set_config,"ax",%progbits
 785              		.align	1
 786              		.p2align 4,,15
 787              		.syntax unified
 788              		.thumb
 789              		.thumb_func
 791              	imu963ra_func_set_config:
 792              	.LFB487:
 421:libraries/zf_device/zf_device_imu963ra.c **** 
 422:libraries/zf_device/zf_device_imu963ra.c **** //-------------------------------------------------------------------------------------------------
 423:libraries/zf_device/zf_device_imu963ra.c **** // ÕćĮµĢ░ń«Ćõ╗ŗ     IMU963RA ķģŹńĮ«µ©ĪÕØŚÕĘźõĮ£ÕÅéµĢ░ µĪåµ×ČµÄźÕÅŻ
 424:libraries/zf_device/zf_device_imu963ra.c **** // ÕÅéµĢ░Ķ»┤µśÄ     *interface      IMU963RA ńÜäķĆÜõ┐ĪµÄźÕÅŻÕ»╣Ķ▒ĪµīćķÆł
 425:libraries/zf_device/zf_device_imu963ra.c **** // ÕÅéµĢ░Ķ»┤µśÄ     item            IMU963RA ķģŹńĮ«ÕÅéńģ¦ zf_device_imu_interface.h õĖŁ imu_config_
 426:libraries/zf_device/zf_device_imu963ra.c **** // Ķ┐öÕø×ÕÅéµĢ░     uint8           µōŹõĮ£ńŖČµĆü ZF_NO_ERROR / IMU963RA_OPERATION_DONE - Õ«īµłÉ ÕģČ
 427:libraries/zf_device/zf_device_imu963ra.c **** // õĮ┐ńö©ńż║õŠŗ     imu963ra_func_set_config(interface, interface);
 428:libraries/zf_device/zf_device_imu963ra.c **** // Õżćµ│©õ┐Īµü»     µ£¼µÄźÕÅŻõĖ║õ╝Āµä¤ÕÖ©µĪåµ×ČµÄźÕÅŻ Õ╣ČõĖŹńø┤µÄźÕ»╣ńö©µłĘÕ╝ĆµöŠ
 429:libraries/zf_device/zf_device_imu963ra.c **** //-------------------------------------------------------------------------------------------------
 430:libraries/zf_device/zf_device_imu963ra.c **** static uint8 imu963ra_func_set_config (imu_interface_obj_struct *interface, imu_config_item_enum it
 431:libraries/zf_device/zf_device_imu963ra.c **** {
 793              		.loc 1 431 1
 794              		.cfi_startproc
 795              		@ args = 0, pretend = 0, frame = 24
 796              		@ frame_needed = 0, uses_anonymous_args = 0
 797 0000 00B5     		push	{lr}
 798              		.cfi_def_cfa_offset 4
 799              		.cfi_offset 14, -4
 800 0002 89B0     		sub	sp, sp, #36
 801              		.cfi_def_cfa_offset 40
 802 0004 0390     		str	r0, [sp, #12]
 803 0006 0B46     		mov	r3, r1
 804 0008 8DF80B30 		strb	r3, [sp, #11]
 432:libraries/zf_device/zf_device_imu963ra.c ****     imu963ra_operation_state_enum   return_state = IMU963RA_ERROR_UNKNOW_ERROR;
 805              		.loc 1 432 37
 806 000c 0123     		movs	r3, #1
 807 000e 8DF81F30 		strb	r3, [sp, #31]
 433:libraries/zf_device/zf_device_imu963ra.c **** 
 434:libraries/zf_device/zf_device_imu963ra.c ****     uint8   temp_data       = 0;
 808              		.loc 1 434 13
 809 0012 0023     		movs	r3, #0
 810 0014 8DF81E30 		strb	r3, [sp, #30]
 435:libraries/zf_device/zf_device_imu963ra.c **** 
 436:libraries/zf_device/zf_device_imu963ra.c ****     do
 437:libraries/zf_device/zf_device_imu963ra.c ****     {
 438:libraries/zf_device/zf_device_imu963ra.c ****         switch((item >> IMU_CONFIG_TYPE_OFFSET) & IMU_CONFIG_TYPE_MASK)
 811              		.loc 1 438 49
 812 0018 9DF80B30 		ldrb	r3, [sp, #11]	@ zero_extendqisi2
 813 001c 1B09     		lsrs	r3, r3, #4
 814 001e DBB2     		uxtb	r3, r3
 815 0020 03F00F03 		and	r3, r3, #15
 816              		.loc 1 438 9
 817 0024 052B     		cmp	r3, #5
 818 0026 00F26382 		bhi	.L48
 819 002a 01A2     		adr	r2, .L50
 820 002c 52F823F0 		ldr	pc, [r2, r3, lsl #2]
 821              		.p2align 2
 822              	.L50:
 823 0030 49000000 		.word	.L55+1
 824 0034 DB000000 		.word	.L54+1
 825 0038 97010000 		.word	.L53+1
 826 003c 29020000 		.word	.L52+1
 827 0040 E3020000 		.word	.L51+1
 828 0044 05040000 		.word	.L49+1
 829              		.p2align 1
 830              	.L55:
 439:libraries/zf_device/zf_device_imu963ra.c ****         {
 440:libraries/zf_device/zf_device_imu963ra.c ****             case 0x00:
 441:libraries/zf_device/zf_device_imu963ra.c ****             {
 442:libraries/zf_device/zf_device_imu963ra.c ****                 return_state = IMU963RA_OPERATION_DONE;
 831              		.loc 1 442 30
 832 0048 0023     		movs	r3, #0
 833 004a 8DF81F30 		strb	r3, [sp, #31]
 443:libraries/zf_device/zf_device_imu963ra.c ****                 if(imu_interface_assert(
 834              		.loc 1 443 20
 835 004e 9DF80B30 		ldrb	r3, [sp, #11]	@ zero_extendqisi2
 836 0052 03F00F03 		and	r3, r3, #15
 837              		.loc 1 443 19
 838 0056 052B     		cmp	r3, #5
 839 0058 18DC     		bgt	.L56
 840              		.loc 1 443 20 discriminator 1
 841 005a 9DF80B30 		ldrb	r3, [sp, #11]	@ zero_extendqisi2
 842 005e 03F00F03 		and	r3, r3, #15
 843 0062 052B     		cmp	r3, #5
 844 0064 CCBF     		ite	gt
 845 0066 0123     		movgt	r3, #1
 846 0068 0023     		movle	r3, #0
 847 006a DBB2     		uxtb	r3, r3
 848 006c 1946     		mov	r1, r3
 849 006e 40F2BB13 		movw	r3, #443
 850 0072 0093     		str	r3, [sp]
 851 0074 B84B     		ldr	r3, .L88
 852 0076 0022     		movs	r2, #0
 853 0078 0220     		movs	r0, #2
 854 007a FFF7FEFF 		bl	debug_message_handler
 855 007e 0346     		mov	r3, r0
 856 0080 002B     		cmp	r3, #0
 857 0082 03D0     		beq	.L56
 444:libraries/zf_device/zf_device_imu963ra.c ****                             IMU_ACC_OUTPUT_RATE_4_DIV      <= (item & 0x0F)
 445:libraries/zf_device/zf_device_imu963ra.c ****                         &&  IMU_ACC_OUTPUT_RATE_128_MUL    >= (item & 0x0F)))
 446:libraries/zf_device/zf_device_imu963ra.c ****                 {
 447:libraries/zf_device/zf_device_imu963ra.c ****                     return_state = IMU963RA_ERROR_SET_ACC_OUTPUT_RATE_ERROR;
 858              		.loc 1 447 34
 859 0084 2823     		movs	r3, #40
 860 0086 8DF81F30 		strb	r3, [sp, #31]
 448:libraries/zf_device/zf_device_imu963ra.c ****                     break;
 861              		.loc 1 448 21
 862 008a 42E2     		b	.L57
 863              	.L56:
 449:libraries/zf_device/zf_device_imu963ra.c ****                 }
 450:libraries/zf_device/zf_device_imu963ra.c ****                 imu_interface_read_8bit_register(
 451:libraries/zf_device/zf_device_imu963ra.c ****                     interface, IMU963RA_DEV_ADDR, 
 452:libraries/zf_device/zf_device_imu963ra.c ****                     (IMU_INTERFACE_TYPE_SPI == interface->interface_type)
 864              		.loc 1 452 57
 865 008c 039B     		ldr	r3, [sp, #12]
 866 008e 1B78     		ldrb	r3, [r3]	@ zero_extendqisi2
 450:libraries/zf_device/zf_device_imu963ra.c ****                     interface, IMU963RA_DEV_ADDR, 
 867              		.loc 1 450 17
 868 0090 012B     		cmp	r3, #1
 869 0092 01D1     		bne	.L58
 450:libraries/zf_device/zf_device_imu963ra.c ****                     interface, IMU963RA_DEV_ADDR, 
 870              		.loc 1 450 17 is_stmt 0 discriminator 1
 871 0094 9022     		movs	r2, #144
 872 0096 00E0     		b	.L59
 873              	.L58:
 450:libraries/zf_device/zf_device_imu963ra.c ****                     interface, IMU963RA_DEV_ADDR, 
 874              		.loc 1 450 17 discriminator 2
 875 0098 1022     		movs	r2, #16
 876              	.L59:
 450:libraries/zf_device/zf_device_imu963ra.c ****                     interface, IMU963RA_DEV_ADDR, 
 877              		.loc 1 450 17 discriminator 4
 878 009a 0DF11E03 		add	r3, sp, #30
 879 009e 6B21     		movs	r1, #107
 880 00a0 0398     		ldr	r0, [sp, #12]
 881 00a2 FFF7FEFF 		bl	imu_interface_read_8bit_register
 453:libraries/zf_device/zf_device_imu963ra.c ****                         ? (IMU963RA_CTRL1_XL | IMU963RA_SPI_R)
 454:libraries/zf_device/zf_device_imu963ra.c ****                         : IMU963RA_CTRL1_XL,
 455:libraries/zf_device/zf_device_imu963ra.c ****                     &temp_data);
 456:libraries/zf_device/zf_device_imu963ra.c ****                 temp_data = ((temp_data & ~0xF0) |(((item & 0x0F) - 5) << 4));
 882              		.loc 1 456 41 is_stmt 1 discriminator 4
 883 00a6 9DF81E30 		ldrb	r3, [sp, #30]	@ zero_extendqisi2
 884 00aa 5BB2     		sxtb	r3, r3
 885 00ac 03F00F03 		and	r3, r3, #15
 886 00b0 5AB2     		sxtb	r2, r3
 887              		.loc 1 456 59 discriminator 4
 888 00b2 9DF80B30 		ldrb	r3, [sp, #11]	@ zero_extendqisi2
 889 00b6 03F00F03 		and	r3, r3, #15
 890              		.loc 1 456 67 discriminator 4
 891 00ba 053B     		subs	r3, r3, #5
 892              		.loc 1 456 72 discriminator 4
 893 00bc 1B01     		lsls	r3, r3, #4
 894              		.loc 1 456 50 discriminator 4
 895 00be 5BB2     		sxtb	r3, r3
 896 00c0 1343     		orrs	r3, r3, r2
 897 00c2 5BB2     		sxtb	r3, r3
 898 00c4 DBB2     		uxtb	r3, r3
 899              		.loc 1 456 27 discriminator 4
 900 00c6 8DF81E30 		strb	r3, [sp, #30]
 457:libraries/zf_device/zf_device_imu963ra.c ****                 imu_interface_write_8bit_register(interface, IMU963RA_DEV_ADDR, IMU963RA_CTRL1_XL, 
 901              		.loc 1 457 17 discriminator 4
 902 00ca 9DF81E30 		ldrb	r3, [sp, #30]	@ zero_extendqisi2
 903 00ce 1022     		movs	r2, #16
 904 00d0 6B21     		movs	r1, #107
 905 00d2 0398     		ldr	r0, [sp, #12]
 906 00d4 FFF7FEFF 		bl	imu_interface_write_8bit_register
 458:libraries/zf_device/zf_device_imu963ra.c ****             }break;
 907              		.loc 1 458 13 discriminator 4
 908 00d8 1BE2     		b	.L57
 909              	.L54:
 910              	.LBB5:
 459:libraries/zf_device/zf_device_imu963ra.c ****             case 0x01:
 460:libraries/zf_device/zf_device_imu963ra.c ****             {
 461:libraries/zf_device/zf_device_imu963ra.c ****                 return_state = IMU963RA_OPERATION_DONE;
 911              		.loc 1 461 30
 912 00da 0023     		movs	r3, #0
 913 00dc 8DF81F30 		strb	r3, [sp, #31]
 462:libraries/zf_device/zf_device_imu963ra.c ****                 if(imu_interface_assert(
 914              		.loc 1 462 20
 915 00e0 9DF80B30 		ldrb	r3, [sp, #11]	@ zero_extendqisi2
 916 00e4 03F00E03 		and	r3, r3, #14
 917              		.loc 1 462 19
 918 00e8 002B     		cmp	r3, #0
 919 00ea 05D0     		beq	.L60
 920              		.loc 1 462 20 discriminator 2
 921 00ec 9DF80B30 		ldrb	r3, [sp, #11]	@ zero_extendqisi2
 922 00f0 03F00F03 		and	r3, r3, #15
 923 00f4 052B     		cmp	r3, #5
 924 00f6 1EDD     		ble	.L61
 925              	.L60:
 926              		.loc 1 462 20 is_stmt 0 discriminator 3
 927 00f8 9DF80B30 		ldrb	r3, [sp, #11]	@ zero_extendqisi2
 928 00fc 03F00E03 		and	r3, r3, #14
 929 0100 002B     		cmp	r3, #0
 930 0102 07D0     		beq	.L62
 931              		.loc 1 462 20 discriminator 4
 932 0104 9DF80B30 		ldrb	r3, [sp, #11]	@ zero_extendqisi2
 933 0108 03F00F03 		and	r3, r3, #15
 934 010c 052B     		cmp	r3, #5
 935 010e 01DC     		bgt	.L62
 936              		.loc 1 462 20 discriminator 6
 937 0110 0123     		movs	r3, #1
 938 0112 00E0     		b	.L63
 939              	.L62:
 940              		.loc 1 462 20 discriminator 7
 941 0114 0023     		movs	r3, #0
 942              	.L63:
 943              		.loc 1 462 20 discriminator 9
 944 0116 D9B2     		uxtb	r1, r3
 945 0118 4FF4E773 		mov	r3, #462
 946 011c 0093     		str	r3, [sp]
 947 011e 8E4B     		ldr	r3, .L88
 948 0120 0022     		movs	r2, #0
 949 0122 0220     		movs	r0, #2
 950 0124 FFF7FEFF 		bl	debug_message_handler
 951 0128 0346     		mov	r3, r0
 952 012a 002B     		cmp	r3, #0
 953 012c 03D0     		beq	.L61
 463:libraries/zf_device/zf_device_imu963ra.c ****                             IMU_ACC_RANGE_SGN_2G <= (item & 0x0F)
 464:libraries/zf_device/zf_device_imu963ra.c ****                         &&  IMU_ACC_RANGE_SGN_16G >= (item & 0x0F)))
 465:libraries/zf_device/zf_device_imu963ra.c ****                 {
 466:libraries/zf_device/zf_device_imu963ra.c ****                     return_state = IMU963RA_ERROR_SET_ACC_RANGE_ERROR;
 954              		.loc 1 466 34 is_stmt 1
 955 012e 2923     		movs	r3, #41
 956 0130 8DF81F30 		strb	r3, [sp, #31]
 957 0134 EDE1     		b	.L57
 958              	.L61:
 467:libraries/zf_device/zf_device_imu963ra.c ****                     break;
 468:libraries/zf_device/zf_device_imu963ra.c ****                 }
 469:libraries/zf_device/zf_device_imu963ra.c ****                 imu_interface_read_8bit_register(
 470:libraries/zf_device/zf_device_imu963ra.c ****                     interface, IMU963RA_DEV_ADDR, 
 471:libraries/zf_device/zf_device_imu963ra.c ****                     (IMU_INTERFACE_TYPE_SPI == interface->interface_type)
 959              		.loc 1 471 57
 960 0136 039B     		ldr	r3, [sp, #12]
 961 0138 1B78     		ldrb	r3, [r3]	@ zero_extendqisi2
 469:libraries/zf_device/zf_device_imu963ra.c ****                     interface, IMU963RA_DEV_ADDR, 
 962              		.loc 1 469 17
 963 013a 012B     		cmp	r3, #1
 964 013c 01D1     		bne	.L64
 469:libraries/zf_device/zf_device_imu963ra.c ****                     interface, IMU963RA_DEV_ADDR, 
 965              		.loc 1 469 17 is_stmt 0 discriminator 1
 966 013e 9022     		movs	r2, #144
 967 0140 00E0     		b	.L65
 968              	.L64:
 469:libraries/zf_device/zf_device_imu963ra.c ****                     interface, IMU963RA_DEV_ADDR, 
 969              		.loc 1 469 17 discriminator 2
 970 0142 1022     		movs	r2, #16
 971              	.L65:
 469:libraries/zf_device/zf_device_imu963ra.c ****                     interface, IMU963RA_DEV_ADDR, 
 972              		.loc 1 469 17 discriminator 4
 973 0144 0DF11E03 		add	r3, sp, #30
 974 0148 6B21     		movs	r1, #107
 975 014a 0398     		ldr	r0, [sp, #12]
 976 014c FFF7FEFF 		bl	imu_interface_read_8bit_register
 472:libraries/zf_device/zf_device_imu963ra.c ****                         ? (IMU963RA_CTRL1_XL | IMU963RA_SPI_R)
 473:libraries/zf_device/zf_device_imu963ra.c ****                         : IMU963RA_CTRL1_XL,
 474:libraries/zf_device/zf_device_imu963ra.c ****                     &temp_data);
 475:libraries/zf_device/zf_device_imu963ra.c ****                 const uint8 acc_range_list[6] = {0x00, 0x00, 0x00, 0x08, 0x0C, 0x04};
 977              		.loc 1 475 29 is_stmt 1 discriminator 4
 978 0150 824A     		ldr	r2, .L88+4
 979 0152 06AB     		add	r3, sp, #24
 980 0154 92E80300 		ldm	r2, {r0, r1}
 981 0158 1860     		str	r0, [r3]
 982 015a 0433     		adds	r3, r3, #4
 983 015c 1980     		strh	r1, [r3]	@ movhi
 476:libraries/zf_device/zf_device_imu963ra.c ****                 temp_data = ((temp_data & ~0x0C) | acc_range_list[(item & 0x0F)]);
 984              		.loc 1 476 41 discriminator 4
 985 015e 9DF81E30 		ldrb	r3, [sp, #30]	@ zero_extendqisi2
 986 0162 5BB2     		sxtb	r3, r3
 987 0164 23F00C03 		bic	r3, r3, #12
 988 0168 5AB2     		sxtb	r2, r3
 989              		.loc 1 476 73 discriminator 4
 990 016a 9DF80B30 		ldrb	r3, [sp, #11]	@ zero_extendqisi2
 991 016e 03F00F03 		and	r3, r3, #15
 992              		.loc 1 476 66 discriminator 4
 993 0172 2033     		adds	r3, r3, #32
 994 0174 6B44     		add	r3, sp, r3
 995 0176 13F8083C 		ldrb	r3, [r3, #-8]	@ zero_extendqisi2
 996 017a 5BB2     		sxtb	r3, r3
 997              		.loc 1 476 50 discriminator 4
 998 017c 1343     		orrs	r3, r3, r2
 999 017e 5BB2     		sxtb	r3, r3
 1000 0180 DBB2     		uxtb	r3, r3
 1001              		.loc 1 476 27 discriminator 4
 1002 0182 8DF81E30 		strb	r3, [sp, #30]
 477:libraries/zf_device/zf_device_imu963ra.c ****                 imu_interface_write_8bit_register(interface, IMU963RA_DEV_ADDR, IMU963RA_CTRL1_XL, 
 1003              		.loc 1 477 17 discriminator 4
 1004 0186 9DF81E30 		ldrb	r3, [sp, #30]	@ zero_extendqisi2
 1005 018a 1022     		movs	r2, #16
 1006 018c 6B21     		movs	r1, #107
 1007 018e 0398     		ldr	r0, [sp, #12]
 1008 0190 FFF7FEFF 		bl	imu_interface_write_8bit_register
 1009              	.LBE5:
 478:libraries/zf_device/zf_device_imu963ra.c ****             }break;
 1010              		.loc 1 478 13 discriminator 4
 1011 0194 BDE1     		b	.L57
 1012              	.L53:
 479:libraries/zf_device/zf_device_imu963ra.c ****             case 0x02:
 480:libraries/zf_device/zf_device_imu963ra.c ****             {
 481:libraries/zf_device/zf_device_imu963ra.c ****                 return_state = IMU963RA_OPERATION_DONE;
 1013              		.loc 1 481 30
 1014 0196 0023     		movs	r3, #0
 1015 0198 8DF81F30 		strb	r3, [sp, #31]
 482:libraries/zf_device/zf_device_imu963ra.c ****                 if(imu_interface_assert(
 1016              		.loc 1 482 20
 1017 019c 9DF80B30 		ldrb	r3, [sp, #11]	@ zero_extendqisi2
 1018 01a0 03F00F03 		and	r3, r3, #15
 1019              		.loc 1 482 19
 1020 01a4 052B     		cmp	r3, #5
 1021 01a6 18DC     		bgt	.L66
 1022              		.loc 1 482 20 discriminator 1
 1023 01a8 9DF80B30 		ldrb	r3, [sp, #11]	@ zero_extendqisi2
 1024 01ac 03F00F03 		and	r3, r3, #15
 1025 01b0 052B     		cmp	r3, #5
 1026 01b2 CCBF     		ite	gt
 1027 01b4 0123     		movgt	r3, #1
 1028 01b6 0023     		movle	r3, #0
 1029 01b8 DBB2     		uxtb	r3, r3
 1030 01ba 1946     		mov	r1, r3
 1031 01bc 4FF4F173 		mov	r3, #482
 1032 01c0 0093     		str	r3, [sp]
 1033 01c2 654B     		ldr	r3, .L88
 1034 01c4 0022     		movs	r2, #0
 1035 01c6 0220     		movs	r0, #2
 1036 01c8 FFF7FEFF 		bl	debug_message_handler
 1037 01cc 0346     		mov	r3, r0
 1038 01ce 002B     		cmp	r3, #0
 1039 01d0 03D0     		beq	.L66
 483:libraries/zf_device/zf_device_imu963ra.c ****                             IMU_GYRO_OUTPUT_RATE_4_DIV     <= (item & 0x0F)
 484:libraries/zf_device/zf_device_imu963ra.c ****                         &&  IMU_GYRO_OUTPUT_RATE_128_MUL   >= (item & 0x0F)))
 485:libraries/zf_device/zf_device_imu963ra.c ****                 {
 486:libraries/zf_device/zf_device_imu963ra.c ****                     return_state = IMU963RA_ERROR_SET_GYRO_OUTPUT_RATE_ERROR;
 1040              		.loc 1 486 34
 1041 01d2 2A23     		movs	r3, #42
 1042 01d4 8DF81F30 		strb	r3, [sp, #31]
 487:libraries/zf_device/zf_device_imu963ra.c ****                     break;
 1043              		.loc 1 487 21
 1044 01d8 9BE1     		b	.L57
 1045              	.L66:
 488:libraries/zf_device/zf_device_imu963ra.c ****                 }
 489:libraries/zf_device/zf_device_imu963ra.c ****                 imu_interface_read_8bit_register(
 490:libraries/zf_device/zf_device_imu963ra.c ****                     interface, IMU963RA_DEV_ADDR, 
 491:libraries/zf_device/zf_device_imu963ra.c ****                     (IMU_INTERFACE_TYPE_SPI == interface->interface_type)
 1046              		.loc 1 491 57
 1047 01da 039B     		ldr	r3, [sp, #12]
 1048 01dc 1B78     		ldrb	r3, [r3]	@ zero_extendqisi2
 489:libraries/zf_device/zf_device_imu963ra.c ****                     interface, IMU963RA_DEV_ADDR, 
 1049              		.loc 1 489 17
 1050 01de 012B     		cmp	r3, #1
 1051 01e0 01D1     		bne	.L67
 489:libraries/zf_device/zf_device_imu963ra.c ****                     interface, IMU963RA_DEV_ADDR, 
 1052              		.loc 1 489 17 is_stmt 0 discriminator 1
 1053 01e2 9122     		movs	r2, #145
 1054 01e4 00E0     		b	.L68
 1055              	.L67:
 489:libraries/zf_device/zf_device_imu963ra.c ****                     interface, IMU963RA_DEV_ADDR, 
 1056              		.loc 1 489 17 discriminator 2
 1057 01e6 1122     		movs	r2, #17
 1058              	.L68:
 489:libraries/zf_device/zf_device_imu963ra.c ****                     interface, IMU963RA_DEV_ADDR, 
 1059              		.loc 1 489 17 discriminator 4
 1060 01e8 0DF11E03 		add	r3, sp, #30
 1061 01ec 6B21     		movs	r1, #107
 1062 01ee 0398     		ldr	r0, [sp, #12]
 1063 01f0 FFF7FEFF 		bl	imu_interface_read_8bit_register
 492:libraries/zf_device/zf_device_imu963ra.c ****                         ? (IMU963RA_CTRL2_G | IMU963RA_SPI_R)
 493:libraries/zf_device/zf_device_imu963ra.c ****                         : IMU963RA_CTRL2_G,
 494:libraries/zf_device/zf_device_imu963ra.c ****                     &temp_data);
 495:libraries/zf_device/zf_device_imu963ra.c ****                 temp_data = ((temp_data & ~0xF0) |(((item & 0x0F) - 5) << 4));
 1064              		.loc 1 495 41 is_stmt 1 discriminator 4
 1065 01f4 9DF81E30 		ldrb	r3, [sp, #30]	@ zero_extendqisi2
 1066 01f8 5BB2     		sxtb	r3, r3
 1067 01fa 03F00F03 		and	r3, r3, #15
 1068 01fe 5AB2     		sxtb	r2, r3
 1069              		.loc 1 495 59 discriminator 4
 1070 0200 9DF80B30 		ldrb	r3, [sp, #11]	@ zero_extendqisi2
 1071 0204 03F00F03 		and	r3, r3, #15
 1072              		.loc 1 495 67 discriminator 4
 1073 0208 053B     		subs	r3, r3, #5
 1074              		.loc 1 495 72 discriminator 4
 1075 020a 1B01     		lsls	r3, r3, #4
 1076              		.loc 1 495 50 discriminator 4
 1077 020c 5BB2     		sxtb	r3, r3
 1078 020e 1343     		orrs	r3, r3, r2
 1079 0210 5BB2     		sxtb	r3, r3
 1080 0212 DBB2     		uxtb	r3, r3
 1081              		.loc 1 495 27 discriminator 4
 1082 0214 8DF81E30 		strb	r3, [sp, #30]
 496:libraries/zf_device/zf_device_imu963ra.c ****                 imu_interface_write_8bit_register(interface, IMU963RA_DEV_ADDR, IMU963RA_CTRL2_G, t
 1083              		.loc 1 496 17 discriminator 4
 1084 0218 9DF81E30 		ldrb	r3, [sp, #30]	@ zero_extendqisi2
 1085 021c 1122     		movs	r2, #17
 1086 021e 6B21     		movs	r1, #107
 1087 0220 0398     		ldr	r0, [sp, #12]
 1088 0222 FFF7FEFF 		bl	imu_interface_write_8bit_register
 497:libraries/zf_device/zf_device_imu963ra.c ****             }break;
 1089              		.loc 1 497 13 discriminator 4
 1090 0226 74E1     		b	.L57
 1091              	.L52:
 1092              	.LBB6:
 498:libraries/zf_device/zf_device_imu963ra.c ****             case 0x03:
 499:libraries/zf_device/zf_device_imu963ra.c ****             {
 500:libraries/zf_device/zf_device_imu963ra.c ****                 return_state = IMU963RA_OPERATION_DONE;
 1093              		.loc 1 500 30
 1094 0228 0023     		movs	r3, #0
 1095 022a 8DF81F30 		strb	r3, [sp, #31]
 501:libraries/zf_device/zf_device_imu963ra.c ****                 if(imu_interface_assert(
 1096              		.loc 1 501 20
 1097 022e 9DF80B30 		ldrb	r3, [sp, #11]	@ zero_extendqisi2
 1098 0232 03F00E03 		and	r3, r3, #14
 1099              		.loc 1 501 19
 1100 0236 002B     		cmp	r3, #0
 1101 0238 05D0     		beq	.L69
 1102              		.loc 1 501 20 discriminator 2
 1103 023a 9DF80B30 		ldrb	r3, [sp, #11]	@ zero_extendqisi2
 1104 023e 03F00803 		and	r3, r3, #8
 1105 0242 002B     		cmp	r3, #0
 1106 0244 1ED0     		beq	.L70
 1107              	.L69:
 1108              		.loc 1 501 20 is_stmt 0 discriminator 3
 1109 0246 9DF80B30 		ldrb	r3, [sp, #11]	@ zero_extendqisi2
 1110 024a 03F00E03 		and	r3, r3, #14
 1111 024e 002B     		cmp	r3, #0
 1112 0250 07D0     		beq	.L71
 1113              		.loc 1 501 20 discriminator 4
 1114 0252 9DF80B30 		ldrb	r3, [sp, #11]	@ zero_extendqisi2
 1115 0256 03F00803 		and	r3, r3, #8
 1116 025a 002B     		cmp	r3, #0
 1117 025c 01D1     		bne	.L71
 1118              		.loc 1 501 20 discriminator 6
 1119 025e 0123     		movs	r3, #1
 1120 0260 00E0     		b	.L72
 1121              	.L71:
 1122              		.loc 1 501 20 discriminator 7
 1123 0262 0023     		movs	r3, #0
 1124              	.L72:
 1125              		.loc 1 501 20 discriminator 9
 1126 0264 D9B2     		uxtb	r1, r3
 1127 0266 40F2F513 		movw	r3, #501
 1128 026a 0093     		str	r3, [sp]
 1129 026c 3A4B     		ldr	r3, .L88
 1130 026e 0022     		movs	r2, #0
 1131 0270 0220     		movs	r0, #2
 1132 0272 FFF7FEFF 		bl	debug_message_handler
 1133 0276 0346     		mov	r3, r0
 1134 0278 002B     		cmp	r3, #0
 1135 027a 03D0     		beq	.L70
 502:libraries/zf_device/zf_device_imu963ra.c ****                             IMU_GYRO_RANGE_SGN_125DPS  <= (item & 0x0F)
 503:libraries/zf_device/zf_device_imu963ra.c ****                         &&  IMU_GYRO_RANGE_SGN_4000DPS >= (item & 0x0F)))
 504:libraries/zf_device/zf_device_imu963ra.c ****                 {
 505:libraries/zf_device/zf_device_imu963ra.c ****                     return_state = IMU963RA_ERROR_SET_GYRO_RANGE_ERROR;
 1136              		.loc 1 505 34 is_stmt 1
 1137 027c 2B23     		movs	r3, #43
 1138 027e 8DF81F30 		strb	r3, [sp, #31]
 1139 0282 46E1     		b	.L57
 1140              	.L70:
 506:libraries/zf_device/zf_device_imu963ra.c ****                     break;
 507:libraries/zf_device/zf_device_imu963ra.c ****                 }
 508:libraries/zf_device/zf_device_imu963ra.c ****                 imu_interface_read_8bit_register(
 509:libraries/zf_device/zf_device_imu963ra.c ****                     interface, IMU963RA_DEV_ADDR, 
 510:libraries/zf_device/zf_device_imu963ra.c ****                     (IMU_INTERFACE_TYPE_SPI == interface->interface_type)
 1141              		.loc 1 510 57
 1142 0284 039B     		ldr	r3, [sp, #12]
 1143 0286 1B78     		ldrb	r3, [r3]	@ zero_extendqisi2
 508:libraries/zf_device/zf_device_imu963ra.c ****                     interface, IMU963RA_DEV_ADDR, 
 1144              		.loc 1 508 17
 1145 0288 012B     		cmp	r3, #1
 1146 028a 01D1     		bne	.L73
 508:libraries/zf_device/zf_device_imu963ra.c ****                     interface, IMU963RA_DEV_ADDR, 
 1147              		.loc 1 508 17 is_stmt 0 discriminator 1
 1148 028c 9122     		movs	r2, #145
 1149 028e 00E0     		b	.L74
 1150              	.L73:
 508:libraries/zf_device/zf_device_imu963ra.c ****                     interface, IMU963RA_DEV_ADDR, 
 1151              		.loc 1 508 17 discriminator 2
 1152 0290 1122     		movs	r2, #17
 1153              	.L74:
 508:libraries/zf_device/zf_device_imu963ra.c ****                     interface, IMU963RA_DEV_ADDR, 
 1154              		.loc 1 508 17 discriminator 4
 1155 0292 0DF11E03 		add	r3, sp, #30
 1156 0296 6B21     		movs	r1, #107
 1157 0298 0398     		ldr	r0, [sp, #12]
 1158 029a FFF7FEFF 		bl	imu_interface_read_8bit_register
 511:libraries/zf_device/zf_device_imu963ra.c ****                         ? (IMU963RA_CTRL2_G | IMU963RA_SPI_R)
 512:libraries/zf_device/zf_device_imu963ra.c ****                         : IMU963RA_CTRL2_G,
 513:libraries/zf_device/zf_device_imu963ra.c ****                     &temp_data);
 514:libraries/zf_device/zf_device_imu963ra.c ****                 const uint8 gyro_range_list[8] = {0x00, 0x00, 0x02, 0x00, 0x04, 0x08, 0x0C, 0x01};
 1159              		.loc 1 514 29 is_stmt 1 discriminator 4
 1160 029e 304A     		ldr	r2, .L88+8
 1161 02a0 04AB     		add	r3, sp, #16
 1162 02a2 92E80300 		ldm	r2, {r0, r1}
 1163 02a6 83E80300 		stm	r3, {r0, r1}
 515:libraries/zf_device/zf_device_imu963ra.c ****                 temp_data = ((temp_data & ~0x0F) | gyro_range_list[(item & 0x0F)]);
 1164              		.loc 1 515 41 discriminator 4
 1165 02aa 9DF81E30 		ldrb	r3, [sp, #30]	@ zero_extendqisi2
 1166 02ae 5BB2     		sxtb	r3, r3
 1167 02b0 23F00F03 		bic	r3, r3, #15
 1168 02b4 5AB2     		sxtb	r2, r3
 1169              		.loc 1 515 74 discriminator 4
 1170 02b6 9DF80B30 		ldrb	r3, [sp, #11]	@ zero_extendqisi2
 1171 02ba 03F00F03 		and	r3, r3, #15
 1172              		.loc 1 515 67 discriminator 4
 1173 02be 2033     		adds	r3, r3, #32
 1174 02c0 6B44     		add	r3, sp, r3
 1175 02c2 13F8103C 		ldrb	r3, [r3, #-16]	@ zero_extendqisi2
 1176 02c6 5BB2     		sxtb	r3, r3
 1177              		.loc 1 515 50 discriminator 4
 1178 02c8 1343     		orrs	r3, r3, r2
 1179 02ca 5BB2     		sxtb	r3, r3
 1180 02cc DBB2     		uxtb	r3, r3
 1181              		.loc 1 515 27 discriminator 4
 1182 02ce 8DF81E30 		strb	r3, [sp, #30]
 516:libraries/zf_device/zf_device_imu963ra.c ****                 imu_interface_write_8bit_register(interface, IMU963RA_DEV_ADDR, IMU963RA_CTRL2_G, t
 1183              		.loc 1 516 17 discriminator 4
 1184 02d2 9DF81E30 		ldrb	r3, [sp, #30]	@ zero_extendqisi2
 1185 02d6 1122     		movs	r2, #17
 1186 02d8 6B21     		movs	r1, #107
 1187 02da 0398     		ldr	r0, [sp, #12]
 1188 02dc FFF7FEFF 		bl	imu_interface_write_8bit_register
 1189              	.LBE6:
 517:libraries/zf_device/zf_device_imu963ra.c ****             }break;
 1190              		.loc 1 517 13 discriminator 4
 1191 02e0 17E1     		b	.L57
 1192              	.L51:
 518:libraries/zf_device/zf_device_imu963ra.c ****             case 0x04:
 519:libraries/zf_device/zf_device_imu963ra.c ****             {
 520:libraries/zf_device/zf_device_imu963ra.c ****                 return_state = IMU963RA_OPERATION_DONE;
 1193              		.loc 1 520 30
 1194 02e2 0023     		movs	r3, #0
 1195 02e4 8DF81F30 		strb	r3, [sp, #31]
 521:libraries/zf_device/zf_device_imu963ra.c ****                 if(imu_interface_assert(
 1196              		.loc 1 521 20
 1197 02e8 9DF80B30 		ldrb	r3, [sp, #11]	@ zero_extendqisi2
 1198 02ec 03F00F03 		and	r3, r3, #15
 1199              		.loc 1 521 19
 1200 02f0 052B     		cmp	r3, #5
 1201 02f2 0BDD     		ble	.L75
 1202              		.loc 1 521 20 discriminator 2
 1203 02f4 9DF80B30 		ldrb	r3, [sp, #11]	@ zero_extendqisi2
 1204 02f8 03F00F03 		and	r3, r3, #15
 1205 02fc 0A2B     		cmp	r3, #10
 1206 02fe 05DC     		bgt	.L75
 1207              		.loc 1 521 20 is_stmt 0 discriminator 4
 1208 0300 9DF80B30 		ldrb	r3, [sp, #11]	@ zero_extendqisi2
 1209 0304 03F00F03 		and	r3, r3, #15
 1210 0308 072B     		cmp	r3, #7
 1211 030a 2BD1     		bne	.L76
 1212              	.L75:
 1213              		.loc 1 521 20 discriminator 5
 1214 030c 9DF80B30 		ldrb	r3, [sp, #11]	@ zero_extendqisi2
 1215 0310 03F00F03 		and	r3, r3, #15
 1216 0314 052B     		cmp	r3, #5
 1217 0316 0DDD     		ble	.L77
 1218              		.loc 1 521 20 discriminator 6
 1219 0318 9DF80B30 		ldrb	r3, [sp, #11]	@ zero_extendqisi2
 1220 031c 03F00F03 		and	r3, r3, #15
 1221 0320 0A2B     		cmp	r3, #10
 1222 0322 07DC     		bgt	.L77
 1223              		.loc 1 521 20 discriminator 8
 1224 0324 9DF80B30 		ldrb	r3, [sp, #11]	@ zero_extendqisi2
 1225 0328 03F00F03 		and	r3, r3, #15
 1226 032c 072B     		cmp	r3, #7
 1227 032e 01D0     		beq	.L77
 1228              		.loc 1 521 20 discriminator 10
 1229 0330 0123     		movs	r3, #1
 1230 0332 00E0     		b	.L78
 1231              	.L77:
 1232              		.loc 1 521 20 discriminator 11
 1233 0334 0023     		movs	r3, #0
 1234              	.L78:
 1235              		.loc 1 521 20 discriminator 13
 1236 0336 D9B2     		uxtb	r1, r3
 1237 0338 40F20923 		movw	r3, #521
 1238 033c 0093     		str	r3, [sp]
 1239 033e 064B     		ldr	r3, .L88
 1240 0340 0022     		movs	r2, #0
 1241 0342 0220     		movs	r0, #2
 1242 0344 FFF7FEFF 		bl	debug_message_handler
 1243 0348 0346     		mov	r3, r0
 1244 034a 002B     		cmp	r3, #0
 1245 034c 0AD0     		beq	.L76
 522:libraries/zf_device/zf_device_imu963ra.c ****                         (   IMU_MAG_OUTPUT_RATE_4_DIV   <= (item & 0x0F)
 523:libraries/zf_device/zf_device_imu963ra.c ****                         &&  IMU_MAG_OUTPUT_RATE_4_MUL   >= (item & 0x0F))
 524:libraries/zf_device/zf_device_imu963ra.c ****                     &&  (   IMU_MAG_OUTPUT_RATE_2_DIV   != (item & 0x0F))))
 525:libraries/zf_device/zf_device_imu963ra.c ****                 {
 526:libraries/zf_device/zf_device_imu963ra.c ****                     return_state = IMU963RA_ERROR_SET_MAG_OUTPUT_RATE_ERROR;
 1246              		.loc 1 526 34 is_stmt 1
 1247 034e 2C23     		movs	r3, #44
 1248 0350 8DF81F30 		strb	r3, [sp, #31]
 527:libraries/zf_device/zf_device_imu963ra.c ****                     break;
 1249              		.loc 1 527 21
 1250 0354 DDE0     		b	.L57
 1251              	.L89:
 1252 0356 00BF     		.align	2
 1253              	.L88:
 1254 0358 00000000 		.word	.LC3
 1255 035c 2C000000 		.word	.LC4
 1256 0360 34000000 		.word	.LC5
 1257              	.L76:
 528:libraries/zf_device/zf_device_imu963ra.c ****                 }
 529:libraries/zf_device/zf_device_imu963ra.c ****                 imu_interface_write_8bit_register(interface, IMU963RA_DEV_ADDR, IMU963RA_FUNC_CFG_A
 1258              		.loc 1 529 17
 1259 0364 4023     		movs	r3, #64
 1260 0366 0122     		movs	r2, #1
 1261 0368 6B21     		movs	r1, #107
 1262 036a 0398     		ldr	r0, [sp, #12]
 1263 036c FFF7FEFF 		bl	imu_interface_write_8bit_register
 530:libraries/zf_device/zf_device_imu963ra.c ****                 do
 531:libraries/zf_device/zf_device_imu963ra.c ****                 {
 532:libraries/zf_device/zf_device_imu963ra.c ****                     imu963ra_read_mag_register(interface, IMU963RA_MAG_ADDR, IMU963RA_MAG_CONTROL1,
 1264              		.loc 1 532 21
 1265 0370 0DF11E03 		add	r3, sp, #30
 1266 0374 0922     		movs	r2, #9
 1267 0376 0D21     		movs	r1, #13
 1268 0378 0398     		ldr	r0, [sp, #12]
 1269 037a FFF7FEFF 		bl	imu963ra_read_mag_register
 533:libraries/zf_device/zf_device_imu963ra.c ****                     temp_data = (temp_data & ~0x0C)
 1270              		.loc 1 533 44
 1271 037e 9DF81E30 		ldrb	r3, [sp, #30]	@ zero_extendqisi2
 1272 0382 5BB2     		sxtb	r3, r3
 1273 0384 23F00C03 		bic	r3, r3, #12
 1274 0388 5AB2     		sxtb	r2, r3
 534:libraries/zf_device/zf_device_imu963ra.c ****                         | (((item & 0x0F) == IMU_MAG_OUTPUT_RATE_4_DIV) ? (0) : (((item & 0x0F) - 7
 1275              		.loc 1 534 35
 1276 038a 9DF80B30 		ldrb	r3, [sp, #11]	@ zero_extendqisi2
 1277 038e 03F00F03 		and	r3, r3, #15
 1278              		.loc 1 534 25
 1279 0392 062B     		cmp	r3, #6
 1280 0394 07D0     		beq	.L79
 1281              		.loc 1 534 89 discriminator 1
 1282 0396 9DF80B30 		ldrb	r3, [sp, #11]	@ zero_extendqisi2
 1283 039a 03F00F03 		and	r3, r3, #15
 1284              		.loc 1 534 97 discriminator 1
 1285 039e 073B     		subs	r3, r3, #7
 1286              		.loc 1 534 102 discriminator 1
 1287 03a0 9B00     		lsls	r3, r3, #2
 1288              		.loc 1 534 25 discriminator 1
 1289 03a2 5BB2     		sxtb	r3, r3
 1290 03a4 00E0     		b	.L80
 1291              	.L79:
 1292              		.loc 1 534 25 is_stmt 0 discriminator 2
 1293 03a6 0023     		movs	r3, #0
 1294              	.L80:
 1295              		.loc 1 534 25 discriminator 4
 1296 03a8 1343     		orrs	r3, r3, r2
 1297 03aa 5BB2     		sxtb	r3, r3
 1298 03ac DBB2     		uxtb	r3, r3
 533:libraries/zf_device/zf_device_imu963ra.c ****                     temp_data = (temp_data & ~0x0C)
 1299              		.loc 1 533 31 is_stmt 1 discriminator 4
 1300 03ae 8DF81E30 		strb	r3, [sp, #30]
 535:libraries/zf_device/zf_device_imu963ra.c ****                     imu963ra_write_mag_register(interface, IMU963RA_MAG_ADDR, IMU963RA_MAG_CONTROL1
 1301              		.loc 1 535 21 discriminator 4
 1302 03b2 9DF81E30 		ldrb	r3, [sp, #30]	@ zero_extendqisi2
 1303 03b6 43F00103 		orr	r3, r3, #1
 1304 03ba DBB2     		uxtb	r3, r3
 1305 03bc 0922     		movs	r2, #9
 1306 03be 0D21     		movs	r1, #13
 1307 03c0 0398     		ldr	r0, [sp, #12]
 1308 03c2 FFF7FEFF 		bl	imu963ra_write_mag_register
 536:libraries/zf_device/zf_device_imu963ra.c **** 
 537:libraries/zf_device/zf_device_imu963ra.c ****                     imu_interface_write_8bit_register(interface, IMU963RA_DEV_ADDR, IMU963RA_SLV0_A
 1309              		.loc 1 537 21 discriminator 4
 1310 03c6 1B23     		movs	r3, #27
 1311 03c8 1522     		movs	r2, #21
 1312 03ca 6B21     		movs	r1, #107
 1313 03cc 0398     		ldr	r0, [sp, #12]
 1314 03ce FFF7FEFF 		bl	imu_interface_write_8bit_register
 538:libraries/zf_device/zf_device_imu963ra.c ****                     imu_interface_write_8bit_register(interface, IMU963RA_DEV_ADDR, IMU963RA_SLV0_S
 1315              		.loc 1 538 21 discriminator 4
 1316 03d2 0023     		movs	r3, #0
 1317 03d4 1622     		movs	r2, #22
 1318 03d6 6B21     		movs	r1, #107
 1319 03d8 0398     		ldr	r0, [sp, #12]
 1320 03da FFF7FEFF 		bl	imu_interface_write_8bit_register
 539:libraries/zf_device/zf_device_imu963ra.c ****                     imu_interface_write_8bit_register(interface, IMU963RA_DEV_ADDR, IMU963RA_SLV0_C
 1321              		.loc 1 539 21 discriminator 4
 1322 03de 0623     		movs	r3, #6
 1323 03e0 1722     		movs	r2, #23
 1324 03e2 6B21     		movs	r1, #107
 1325 03e4 0398     		ldr	r0, [sp, #12]
 1326 03e6 FFF7FEFF 		bl	imu_interface_write_8bit_register
 540:libraries/zf_device/zf_device_imu963ra.c ****                     imu_interface_write_8bit_register(interface, IMU963RA_DEV_ADDR, IMU963RA_MASTER
 1327              		.loc 1 540 21 discriminator 4
 1328 03ea 6C23     		movs	r3, #108
 1329 03ec 1422     		movs	r2, #20
 1330 03ee 6B21     		movs	r1, #107
 1331 03f0 0398     		ldr	r0, [sp, #12]
 1332 03f2 FFF7FEFF 		bl	imu_interface_write_8bit_register
 541:libraries/zf_device/zf_device_imu963ra.c ****                 }while(0);
 542:libraries/zf_device/zf_device_imu963ra.c ****                 imu_interface_write_8bit_register(interface, IMU963RA_DEV_ADDR, IMU963RA_FUNC_CFG_A
 1333              		.loc 1 542 17 discriminator 4
 1334 03f6 0023     		movs	r3, #0
 1335 03f8 0122     		movs	r2, #1
 1336 03fa 6B21     		movs	r1, #107
 1337 03fc 0398     		ldr	r0, [sp, #12]
 1338 03fe FFF7FEFF 		bl	imu_interface_write_8bit_register
 543:libraries/zf_device/zf_device_imu963ra.c ****             }break;
 1339              		.loc 1 543 13 discriminator 4
 1340 0402 86E0     		b	.L57
 1341              	.L49:
 544:libraries/zf_device/zf_device_imu963ra.c ****             case 0x05:
 545:libraries/zf_device/zf_device_imu963ra.c ****             {
 546:libraries/zf_device/zf_device_imu963ra.c ****                 return_state = IMU963RA_OPERATION_DONE;
 1342              		.loc 1 546 30
 1343 0404 0023     		movs	r3, #0
 1344 0406 8DF81F30 		strb	r3, [sp, #31]
 547:libraries/zf_device/zf_device_imu963ra.c ****                 if(imu_interface_assert(
 1345              		.loc 1 547 20
 1346 040a 9DF80B30 		ldrb	r3, [sp, #11]	@ zero_extendqisi2
 1347 040e 03F00E03 		and	r3, r3, #14
 1348              		.loc 1 547 19
 1349 0412 002B     		cmp	r3, #0
 1350 0414 05D0     		beq	.L81
 1351              		.loc 1 547 20 discriminator 2
 1352 0416 9DF80B30 		ldrb	r3, [sp, #11]	@ zero_extendqisi2
 1353 041a 03F00C03 		and	r3, r3, #12
 1354 041e 002B     		cmp	r3, #0
 1355 0420 1ED0     		beq	.L82
 1356              	.L81:
 1357              		.loc 1 547 20 is_stmt 0 discriminator 3
 1358 0422 9DF80B30 		ldrb	r3, [sp, #11]	@ zero_extendqisi2
 1359 0426 03F00E03 		and	r3, r3, #14
 1360 042a 002B     		cmp	r3, #0
 1361 042c 07D0     		beq	.L83
 1362              		.loc 1 547 20 discriminator 4
 1363 042e 9DF80B30 		ldrb	r3, [sp, #11]	@ zero_extendqisi2
 1364 0432 03F00C03 		and	r3, r3, #12
 1365 0436 002B     		cmp	r3, #0
 1366 0438 01D1     		bne	.L83
 1367              		.loc 1 547 20 discriminator 6
 1368 043a 0123     		movs	r3, #1
 1369 043c 00E0     		b	.L84
 1370              	.L83:
 1371              		.loc 1 547 20 discriminator 7
 1372 043e 0023     		movs	r3, #0
 1373              	.L84:
 1374              		.loc 1 547 20 discriminator 9
 1375 0440 D9B2     		uxtb	r1, r3
 1376 0442 40F22323 		movw	r3, #547
 1377 0446 0093     		str	r3, [sp]
 1378 0448 354B     		ldr	r3, .L90
 1379 044a 0022     		movs	r2, #0
 1380 044c 0220     		movs	r0, #2
 1381 044e FFF7FEFF 		bl	debug_message_handler
 1382 0452 0346     		mov	r3, r0
 1383 0454 002B     		cmp	r3, #0
 1384 0456 03D0     		beq	.L82
 548:libraries/zf_device/zf_device_imu963ra.c ****                             IMU_MAG_RANGE_2G    <= (item & 0x0F)
 549:libraries/zf_device/zf_device_imu963ra.c ****                         &&  IMU_MAG_RANGE_8G    >= (item & 0x0F)))
 550:libraries/zf_device/zf_device_imu963ra.c ****                 {
 551:libraries/zf_device/zf_device_imu963ra.c ****                     return_state = IMU963RA_ERROR_SET_MAG_RANGE_ERROR;
 1385              		.loc 1 551 34 is_stmt 1
 1386 0458 2D23     		movs	r3, #45
 1387 045a 8DF81F30 		strb	r3, [sp, #31]
 552:libraries/zf_device/zf_device_imu963ra.c ****                     break;
 1388              		.loc 1 552 21
 1389 045e 58E0     		b	.L57
 1390              	.L82:
 553:libraries/zf_device/zf_device_imu963ra.c ****                 }
 554:libraries/zf_device/zf_device_imu963ra.c ****                 imu_interface_write_8bit_register(interface, IMU963RA_DEV_ADDR, IMU963RA_FUNC_CFG_A
 1391              		.loc 1 554 17
 1392 0460 4023     		movs	r3, #64
 1393 0462 0122     		movs	r2, #1
 1394 0464 6B21     		movs	r1, #107
 1395 0466 0398     		ldr	r0, [sp, #12]
 1396 0468 FFF7FEFF 		bl	imu_interface_write_8bit_register
 555:libraries/zf_device/zf_device_imu963ra.c ****                 do
 556:libraries/zf_device/zf_device_imu963ra.c ****                 {
 557:libraries/zf_device/zf_device_imu963ra.c ****                     imu963ra_read_mag_register(interface, IMU963RA_MAG_ADDR, IMU963RA_MAG_CONTROL1,
 1397              		.loc 1 557 21
 1398 046c 0DF11E03 		add	r3, sp, #30
 1399 0470 0922     		movs	r2, #9
 1400 0472 0D21     		movs	r1, #13
 1401 0474 0398     		ldr	r0, [sp, #12]
 1402 0476 FFF7FEFF 		bl	imu963ra_read_mag_register
 558:libraries/zf_device/zf_device_imu963ra.c ****                     temp_data = (temp_data & ~0x30) | (((item & 0x0F) - 2) << 4);
 1403              		.loc 1 558 44
 1404 047a 9DF81E30 		ldrb	r3, [sp, #30]	@ zero_extendqisi2
 1405 047e 5BB2     		sxtb	r3, r3
 1406 0480 23F03003 		bic	r3, r3, #48
 1407 0484 5AB2     		sxtb	r2, r3
 1408              		.loc 1 558 63
 1409 0486 9DF80B30 		ldrb	r3, [sp, #11]	@ zero_extendqisi2
 1410 048a 03F00F03 		and	r3, r3, #15
 1411              		.loc 1 558 71
 1412 048e 023B     		subs	r3, r3, #2
 1413              		.loc 1 558 76
 1414 0490 1B01     		lsls	r3, r3, #4
 1415              		.loc 1 558 53
 1416 0492 5BB2     		sxtb	r3, r3
 1417 0494 1343     		orrs	r3, r3, r2
 1418 0496 5BB2     		sxtb	r3, r3
 1419 0498 DBB2     		uxtb	r3, r3
 1420              		.loc 1 558 31
 1421 049a 8DF81E30 		strb	r3, [sp, #30]
 559:libraries/zf_device/zf_device_imu963ra.c ****                     imu963ra_write_mag_register(interface, IMU963RA_MAG_ADDR, IMU963RA_MAG_CONTROL1
 1422              		.loc 1 559 21
 1423 049e 9DF81E30 		ldrb	r3, [sp, #30]	@ zero_extendqisi2
 1424 04a2 43F00103 		orr	r3, r3, #1
 1425 04a6 DBB2     		uxtb	r3, r3
 1426 04a8 0922     		movs	r2, #9
 1427 04aa 0D21     		movs	r1, #13
 1428 04ac 0398     		ldr	r0, [sp, #12]
 1429 04ae FFF7FEFF 		bl	imu963ra_write_mag_register
 560:libraries/zf_device/zf_device_imu963ra.c **** 
 561:libraries/zf_device/zf_device_imu963ra.c ****                     imu_interface_write_8bit_register(interface, IMU963RA_DEV_ADDR, IMU963RA_SLV0_A
 1430              		.loc 1 561 21
 1431 04b2 1B23     		movs	r3, #27
 1432 04b4 1522     		movs	r2, #21
 1433 04b6 6B21     		movs	r1, #107
 1434 04b8 0398     		ldr	r0, [sp, #12]
 1435 04ba FFF7FEFF 		bl	imu_interface_write_8bit_register
 562:libraries/zf_device/zf_device_imu963ra.c ****                     imu_interface_write_8bit_register(interface, IMU963RA_DEV_ADDR, IMU963RA_SLV0_S
 1436              		.loc 1 562 21
 1437 04be 0023     		movs	r3, #0
 1438 04c0 1622     		movs	r2, #22
 1439 04c2 6B21     		movs	r1, #107
 1440 04c4 0398     		ldr	r0, [sp, #12]
 1441 04c6 FFF7FEFF 		bl	imu_interface_write_8bit_register
 563:libraries/zf_device/zf_device_imu963ra.c ****                     imu_interface_write_8bit_register(interface, IMU963RA_DEV_ADDR, IMU963RA_SLV0_C
 1442              		.loc 1 563 21
 1443 04ca 0623     		movs	r3, #6
 1444 04cc 1722     		movs	r2, #23
 1445 04ce 6B21     		movs	r1, #107
 1446 04d0 0398     		ldr	r0, [sp, #12]
 1447 04d2 FFF7FEFF 		bl	imu_interface_write_8bit_register
 564:libraries/zf_device/zf_device_imu963ra.c ****                     imu_interface_write_8bit_register(interface, IMU963RA_DEV_ADDR, IMU963RA_MASTER
 1448              		.loc 1 564 21
 1449 04d6 6C23     		movs	r3, #108
 1450 04d8 1422     		movs	r2, #20
 1451 04da 6B21     		movs	r1, #107
 1452 04dc 0398     		ldr	r0, [sp, #12]
 1453 04de FFF7FEFF 		bl	imu_interface_write_8bit_register
 565:libraries/zf_device/zf_device_imu963ra.c ****                 }while(0);
 566:libraries/zf_device/zf_device_imu963ra.c ****                 imu_interface_write_8bit_register(interface, IMU963RA_DEV_ADDR, IMU963RA_FUNC_CFG_A
 1454              		.loc 1 566 17
 1455 04e2 0023     		movs	r3, #0
 1456 04e4 0122     		movs	r2, #1
 1457 04e6 6B21     		movs	r1, #107
 1458 04e8 0398     		ldr	r0, [sp, #12]
 1459 04ea FFF7FEFF 		bl	imu_interface_write_8bit_register
 567:libraries/zf_device/zf_device_imu963ra.c ****             }break;
 1460              		.loc 1 567 13
 1461 04ee 10E0     		b	.L57
 1462              	.L48:
 568:libraries/zf_device/zf_device_imu963ra.c ****             default:
 569:libraries/zf_device/zf_device_imu963ra.c ****             {
 570:libraries/zf_device/zf_device_imu963ra.c ****                 if(imu_interface_assert(0))
 1463              		.loc 1 570 20
 1464 04f0 40F23A23 		movw	r3, #570
 1465 04f4 0093     		str	r3, [sp]
 1466 04f6 0A4B     		ldr	r3, .L90
 1467 04f8 0022     		movs	r2, #0
 1468 04fa 0021     		movs	r1, #0
 1469 04fc 0220     		movs	r0, #2
 1470 04fe FFF7FEFF 		bl	debug_message_handler
 1471 0502 0346     		mov	r3, r0
 1472              		.loc 1 570 19
 1473 0504 002B     		cmp	r3, #0
 1474 0506 03D0     		beq	.L87
 571:libraries/zf_device/zf_device_imu963ra.c ****                 {
 572:libraries/zf_device/zf_device_imu963ra.c ****                     return_state = IMU963RA_ERROR_SET_CONFIG_ERROR;
 1475              		.loc 1 572 34
 1476 0508 2723     		movs	r3, #39
 1477 050a 8DF81F30 		strb	r3, [sp, #31]
 573:libraries/zf_device/zf_device_imu963ra.c ****                     break;
 1478              		.loc 1 573 21
 1479 050e 00E0     		b	.L57
 1480              	.L87:
 574:libraries/zf_device/zf_device_imu963ra.c ****                 }
 575:libraries/zf_device/zf_device_imu963ra.c ****             }break;
 1481              		.loc 1 575 13
 1482 0510 00BF     		nop
 1483              	.L57:
 576:libraries/zf_device/zf_device_imu963ra.c ****         }
 577:libraries/zf_device/zf_device_imu963ra.c ****     }while(0);
 578:libraries/zf_device/zf_device_imu963ra.c **** 
 579:libraries/zf_device/zf_device_imu963ra.c ****     return return_state;
 1484              		.loc 1 579 12
 1485 0512 9DF81F30 		ldrb	r3, [sp, #31]	@ zero_extendqisi2
 580:libraries/zf_device/zf_device_imu963ra.c **** }
 1486              		.loc 1 580 1
 1487 0516 1846     		mov	r0, r3
 1488 0518 09B0     		add	sp, sp, #36
 1489              		.cfi_def_cfa_offset 4
 1490              		@ sp needed
 1491 051a 5DF804FB 		ldr	pc, [sp], #4
 1492              	.L91:
 1493 051e 00BF     		.align	2
 1494              	.L90:
 1495 0520 00000000 		.word	.LC3
 1496              		.cfi_endproc
 1497              	.LFE487:
 1499              		.section	.text.imu963ra_func_ckeck_id,"ax",%progbits
 1500              		.align	1
 1501              		.p2align 4,,15
 1502              		.syntax unified
 1503              		.thumb
 1504              		.thumb_func
 1506              	imu963ra_func_ckeck_id:
 1507              	.LFB488:
 581:libraries/zf_device/zf_device_imu963ra.c **** 
 582:libraries/zf_device/zf_device_imu963ra.c **** //-------------------------------------------------------------------------------------------------
 583:libraries/zf_device/zf_device_imu963ra.c **** // ÕćĮµĢ░ń«Ćõ╗ŗ     IMU963RA ÕģŁĶĮ┤ µŻĆµĄŗ ID µś»ÕÉ”Õī╣ķģŹ µĪåµ×ČµÄźÕÅŻ
 584:libraries/zf_device/zf_device_imu963ra.c **** // ÕÅéµĢ░Ķ»┤µśÄ     *interface      IMU963RA ńÜäķĆÜõ┐ĪµÄźÕÅŻÕ»╣Ķ▒ĪµīćķÆł
 585:libraries/zf_device/zf_device_imu963ra.c **** // Ķ┐öÕø×ÕÅéµĢ░     uint8           µōŹõĮ£ńŖČµĆü ZF_NO_ERROR / IMU963RA_OPERATION_DONE - Õ«īµłÉ ÕģČ
 586:libraries/zf_device/zf_device_imu963ra.c **** // õĮ┐ńö©ńż║õŠŗ     imu963ra_func_ckeck_id(interface);
 587:libraries/zf_device/zf_device_imu963ra.c **** // Õżćµ│©õ┐Īµü»     µ£¼µÄźÕÅŻõĖ║õ╝Āµä¤ÕÖ©µĪåµ×ČµÄźÕÅŻ Õ╣ČõĖŹńø┤µÄźÕ»╣ńö©µłĘÕ╝ĆµöŠ
 588:libraries/zf_device/zf_device_imu963ra.c **** //-------------------------------------------------------------------------------------------------
 589:libraries/zf_device/zf_device_imu963ra.c **** static uint8 imu963ra_func_ckeck_id (imu_interface_obj_struct *interface)
 590:libraries/zf_device/zf_device_imu963ra.c **** {
 1508              		.loc 1 590 1
 1509              		.cfi_startproc
 1510              		@ args = 0, pretend = 0, frame = 16
 1511              		@ frame_needed = 0, uses_anonymous_args = 0
 1512 0000 00B5     		push	{lr}
 1513              		.cfi_def_cfa_offset 4
 1514              		.cfi_offset 14, -4
 1515 0002 85B0     		sub	sp, sp, #20
 1516              		.cfi_def_cfa_offset 24
 1517 0004 0190     		str	r0, [sp, #4]
 591:libraries/zf_device/zf_device_imu963ra.c ****     imu963ra_operation_state_enum   return_state = IMU963RA_ERROR_UNKNOW_ERROR;
 1518              		.loc 1 591 37
 1519 0006 0123     		movs	r3, #1
 1520 0008 8DF80F30 		strb	r3, [sp, #15]
 592:libraries/zf_device/zf_device_imu963ra.c **** 
 593:libraries/zf_device/zf_device_imu963ra.c ****     uint8   temp_data       = 0;
 1521              		.loc 1 593 13
 1522 000c 0023     		movs	r3, #0
 1523 000e 8DF80B30 		strb	r3, [sp, #11]
 594:libraries/zf_device/zf_device_imu963ra.c ****     uint16  timeout_count   = 0;
 1524              		.loc 1 594 13
 1525 0012 0023     		movs	r3, #0
 1526 0014 ADF80C30 		strh	r3, [sp, #12]	@ movhi
 595:libraries/zf_device/zf_device_imu963ra.c **** 
 596:libraries/zf_device/zf_device_imu963ra.c ****     do
 597:libraries/zf_device/zf_device_imu963ra.c ****     {
 598:libraries/zf_device/zf_device_imu963ra.c ****         imu_interface_write_8bit_register(interface, IMU963RA_DEV_ADDR, IMU963RA_FUNC_CFG_ACCESS, 0
 1527              		.loc 1 598 9
 1528 0018 0023     		movs	r3, #0
 1529 001a 0122     		movs	r2, #1
 1530 001c 6B21     		movs	r1, #107
 1531 001e 0198     		ldr	r0, [sp, #4]
 1532 0020 FFF7FEFF 		bl	imu_interface_write_8bit_register
 599:libraries/zf_device/zf_device_imu963ra.c ****         imu_interface_write_8bit_register(interface, IMU963RA_DEV_ADDR, IMU963RA_CTRL3_C, 0x01);   
 1533              		.loc 1 599 9
 1534 0024 0123     		movs	r3, #1
 1535 0026 1222     		movs	r2, #18
 1536 0028 6B21     		movs	r1, #107
 1537 002a 0198     		ldr	r0, [sp, #4]
 1538 002c FFF7FEFF 		bl	imu_interface_write_8bit_register
 600:libraries/zf_device/zf_device_imu963ra.c ****         imu_interface_delay_ms(2);                             
 1539              		.loc 1 600 9
 1540 0030 0220     		movs	r0, #2
 1541 0032 FFF7FEFF 		bl	zf_delay_ms
 601:libraries/zf_device/zf_device_imu963ra.c ****         imu_interface_write_8bit_register(interface, IMU963RA_DEV_ADDR, IMU963RA_FUNC_CFG_ACCESS, 0
 1542              		.loc 1 601 9
 1543 0036 0023     		movs	r3, #0
 1544 0038 0122     		movs	r2, #1
 1545 003a 6B21     		movs	r1, #107
 1546 003c 0198     		ldr	r0, [sp, #4]
 1547 003e FFF7FEFF 		bl	imu_interface_write_8bit_register
 1548              	.L97:
 602:libraries/zf_device/zf_device_imu963ra.c ****         do
 603:libraries/zf_device/zf_device_imu963ra.c ****         {
 604:libraries/zf_device/zf_device_imu963ra.c ****             if(IMU963RA_TIMEOUT_COUNT < timeout_count ++)
 1549              		.loc 1 604 55
 1550 0042 BDF80C30 		ldrh	r3, [sp, #12]
 1551 0046 5A1C     		adds	r2, r3, #1
 1552 0048 ADF80C20 		strh	r2, [sp, #12]	@ movhi
 1553              		.loc 1 604 15
 1554 004c 202B     		cmp	r3, #32
 1555 004e 03D9     		bls	.L93
 605:libraries/zf_device/zf_device_imu963ra.c ****             {
 606:libraries/zf_device/zf_device_imu963ra.c ****                 return_state = IMU963RA_ERROR_ID_CHECK_ERROR;
 1556              		.loc 1 606 30
 1557 0050 2523     		movs	r3, #37
 1558 0052 8DF80F30 		strb	r3, [sp, #15]
 607:libraries/zf_device/zf_device_imu963ra.c ****                 break;
 1559              		.loc 1 607 17
 1560 0056 13E0     		b	.L94
 1561              	.L93:
 608:libraries/zf_device/zf_device_imu963ra.c ****             }
 609:libraries/zf_device/zf_device_imu963ra.c ****             imu_interface_read_8bit_register(
 610:libraries/zf_device/zf_device_imu963ra.c ****                 interface, IMU963RA_DEV_ADDR, 
 611:libraries/zf_device/zf_device_imu963ra.c ****                 (IMU_INTERFACE_TYPE_SPI == interface->interface_type)
 1562              		.loc 1 611 53
 1563 0058 019B     		ldr	r3, [sp, #4]
 1564 005a 1B78     		ldrb	r3, [r3]	@ zero_extendqisi2
 609:libraries/zf_device/zf_device_imu963ra.c ****                 interface, IMU963RA_DEV_ADDR, 
 1565              		.loc 1 609 13
 1566 005c 012B     		cmp	r3, #1
 1567 005e 01D1     		bne	.L95
 609:libraries/zf_device/zf_device_imu963ra.c ****                 interface, IMU963RA_DEV_ADDR, 
 1568              		.loc 1 609 13 is_stmt 0 discriminator 1
 1569 0060 8F22     		movs	r2, #143
 1570 0062 00E0     		b	.L96
 1571              	.L95:
 609:libraries/zf_device/zf_device_imu963ra.c ****                 interface, IMU963RA_DEV_ADDR, 
 1572              		.loc 1 609 13 discriminator 2
 1573 0064 0F22     		movs	r2, #15
 1574              	.L96:
 609:libraries/zf_device/zf_device_imu963ra.c ****                 interface, IMU963RA_DEV_ADDR, 
 1575              		.loc 1 609 13 discriminator 4
 1576 0066 0DF10B03 		add	r3, sp, #11
 1577 006a 6B21     		movs	r1, #107
 1578 006c 0198     		ldr	r0, [sp, #4]
 1579 006e FFF7FEFF 		bl	imu_interface_read_8bit_register
 612:libraries/zf_device/zf_device_imu963ra.c ****                     ? (IMU963RA_WHO_AM_I | IMU963RA_SPI_R)
 613:libraries/zf_device/zf_device_imu963ra.c ****                     : IMU963RA_WHO_AM_I,
 614:libraries/zf_device/zf_device_imu963ra.c ****                 &temp_data);
 615:libraries/zf_device/zf_device_imu963ra.c ****             imu_interface_delay_ms(10);
 1580              		.loc 1 615 13 is_stmt 1 discriminator 4
 1581 0072 0A20     		movs	r0, #10
 1582 0074 FFF7FEFF 		bl	zf_delay_ms
 616:libraries/zf_device/zf_device_imu963ra.c ****         }while(0x6B != temp_data);
 1583              		.loc 1 616 21 discriminator 4
 1584 0078 9DF80B30 		ldrb	r3, [sp, #11]	@ zero_extendqisi2
 1585              		.loc 1 616 9 discriminator 4
 1586 007c 6B2B     		cmp	r3, #107
 1587 007e E0D1     		bne	.L97
 1588              	.L94:
 617:libraries/zf_device/zf_device_imu963ra.c ****         if(IMU963RA_ERROR_ID_CHECK_ERROR == return_state)
 1589              		.loc 1 617 11
 1590 0080 9DF80F30 		ldrb	r3, [sp, #15]	@ zero_extendqisi2
 1591 0084 252B     		cmp	r3, #37
 1592 0086 4AD0     		beq	.L102
 618:libraries/zf_device/zf_device_imu963ra.c ****         {
 619:libraries/zf_device/zf_device_imu963ra.c ****             break;
 620:libraries/zf_device/zf_device_imu963ra.c ****         }
 621:libraries/zf_device/zf_device_imu963ra.c **** 
 622:libraries/zf_device/zf_device_imu963ra.c ****         // Õ┐ģķĪ╗Ķ”üń╗Ö ÕŖĀķĆ¤Õ║”Ķ«Ī µł¢ Õ£░ńŻüĶ«Ī õ╗╗µäÅõĖĆõĖ¬Ķ«ŠńĮ«ĶŠōÕć║ķĆ¤ńÄć ÕÉ”ÕłÖÕģŁĶĮ┤Õżäõ║
 623:libraries/zf_device/zf_device_imu963ra.c ****         // imu_interface_write_8bit_register(interface, IMU963RA_DEV_ADDR, IMU963RA_CTRL1_XL, 0x10)
 624:libraries/zf_device/zf_device_imu963ra.c ****         imu_interface_write_8bit_register(interface, IMU963RA_DEV_ADDR, IMU963RA_CTRL2_G,  0x10);
 1593              		.loc 1 624 9
 1594 0088 1023     		movs	r3, #16
 1595 008a 1122     		movs	r2, #17
 1596 008c 6B21     		movs	r1, #107
 1597 008e 0198     		ldr	r0, [sp, #4]
 1598 0090 FFF7FEFF 		bl	imu_interface_write_8bit_register
 625:libraries/zf_device/zf_device_imu963ra.c **** 
 626:libraries/zf_device/zf_device_imu963ra.c ****         imu_interface_write_8bit_register(interface, IMU963RA_DEV_ADDR, IMU963RA_FUNC_CFG_ACCESS, 0
 1599              		.loc 1 626 9
 1600 0094 4023     		movs	r3, #64
 1601 0096 0122     		movs	r2, #1
 1602 0098 6B21     		movs	r1, #107
 1603 009a 0198     		ldr	r0, [sp, #4]
 1604 009c FFF7FEFF 		bl	imu_interface_write_8bit_register
 627:libraries/zf_device/zf_device_imu963ra.c ****         imu_interface_write_8bit_register(interface, IMU963RA_DEV_ADDR, IMU963RA_MASTER_CONFIG, 0x8
 1605              		.loc 1 627 9
 1606 00a0 8023     		movs	r3, #128
 1607 00a2 1422     		movs	r2, #20
 1608 00a4 6B21     		movs	r1, #107
 1609 00a6 0198     		ldr	r0, [sp, #4]
 1610 00a8 FFF7FEFF 		bl	imu_interface_write_8bit_register
 628:libraries/zf_device/zf_device_imu963ra.c ****         imu_interface_delay_ms(2);
 1611              		.loc 1 628 9
 1612 00ac 0220     		movs	r0, #2
 1613 00ae FFF7FEFF 		bl	zf_delay_ms
 629:libraries/zf_device/zf_device_imu963ra.c ****         imu_interface_write_8bit_register(interface, IMU963RA_DEV_ADDR, IMU963RA_MASTER_CONFIG, 0x0
 1614              		.loc 1 629 9
 1615 00b2 0023     		movs	r3, #0
 1616 00b4 1422     		movs	r2, #20
 1617 00b6 6B21     		movs	r1, #107
 1618 00b8 0198     		ldr	r0, [sp, #4]
 1619 00ba FFF7FEFF 		bl	imu_interface_write_8bit_register
 630:libraries/zf_device/zf_device_imu963ra.c ****         imu_interface_delay_ms(2);
 1620              		.loc 1 630 9
 1621 00be 0220     		movs	r0, #2
 1622 00c0 FFF7FEFF 		bl	zf_delay_ms
 631:libraries/zf_device/zf_device_imu963ra.c ****         imu963ra_write_mag_register(interface, IMU963RA_MAG_ADDR, IMU963RA_MAG_CONTROL2, 0x80);// Õ
 1623              		.loc 1 631 9
 1624 00c4 8023     		movs	r3, #128
 1625 00c6 0A22     		movs	r2, #10
 1626 00c8 0D21     		movs	r1, #13
 1627 00ca 0198     		ldr	r0, [sp, #4]
 1628 00cc FFF7FEFF 		bl	imu963ra_write_mag_register
 632:libraries/zf_device/zf_device_imu963ra.c ****         imu_interface_delay_ms(2);
 1629              		.loc 1 632 9
 1630 00d0 0220     		movs	r0, #2
 1631 00d2 FFF7FEFF 		bl	zf_delay_ms
 633:libraries/zf_device/zf_device_imu963ra.c ****         imu963ra_write_mag_register(interface, IMU963RA_MAG_ADDR, IMU963RA_MAG_CONTROL2, 0x00);
 1632              		.loc 1 633 9
 1633 00d6 0023     		movs	r3, #0
 1634 00d8 0A22     		movs	r2, #10
 1635 00da 0D21     		movs	r1, #13
 1636 00dc 0198     		ldr	r0, [sp, #4]
 1637 00de FFF7FEFF 		bl	imu963ra_write_mag_register
 634:libraries/zf_device/zf_device_imu963ra.c ****         imu_interface_delay_ms(2);
 1638              		.loc 1 634 9
 1639 00e2 0220     		movs	r0, #2
 1640 00e4 FFF7FEFF 		bl	zf_delay_ms
 635:libraries/zf_device/zf_device_imu963ra.c **** 
 636:libraries/zf_device/zf_device_imu963ra.c ****         temp_data = 0;
 1641              		.loc 1 636 19
 1642 00e8 0023     		movs	r3, #0
 1643 00ea 8DF80B30 		strb	r3, [sp, #11]
 637:libraries/zf_device/zf_device_imu963ra.c ****         imu963ra_read_mag_register(interface, IMU963RA_MAG_ADDR, IMU963RA_MAG_CHIP_ID, &temp_data);
 1644              		.loc 1 637 9
 1645 00ee 0DF10B03 		add	r3, sp, #11
 1646 00f2 0D22     		movs	r2, #13
 1647 00f4 0D21     		movs	r1, #13
 1648 00f6 0198     		ldr	r0, [sp, #4]
 1649 00f8 FFF7FEFF 		bl	imu963ra_read_mag_register
 638:libraries/zf_device/zf_device_imu963ra.c ****         if(0xff != temp_data)
 1650              		.loc 1 638 17
 1651 00fc 9DF80B30 		ldrb	r3, [sp, #11]	@ zero_extendqisi2
 1652              		.loc 1 638 11
 1653 0100 FF2B     		cmp	r3, #255
 1654 0102 02D0     		beq	.L100
 639:libraries/zf_device/zf_device_imu963ra.c ****         {
 640:libraries/zf_device/zf_device_imu963ra.c ****             return_state = IMU963RA_ERROR_MAG_ID_CHECK_ERROR;
 1655              		.loc 1 640 26
 1656 0104 2F23     		movs	r3, #47
 1657 0106 8DF80F30 		strb	r3, [sp, #15]
 1658              	.L100:
 641:libraries/zf_device/zf_device_imu963ra.c ****         }
 642:libraries/zf_device/zf_device_imu963ra.c ****         imu_interface_write_8bit_register(interface, IMU963RA_DEV_ADDR, IMU963RA_FUNC_CFG_ACCESS, 0
 1659              		.loc 1 642 9
 1660 010a 0023     		movs	r3, #0
 1661 010c 0122     		movs	r2, #1
 1662 010e 6B21     		movs	r1, #107
 1663 0110 0198     		ldr	r0, [sp, #4]
 1664 0112 FFF7FEFF 		bl	imu_interface_write_8bit_register
 643:libraries/zf_device/zf_device_imu963ra.c **** 
 644:libraries/zf_device/zf_device_imu963ra.c ****         return_state = IMU963RA_OPERATION_DONE;
 1665              		.loc 1 644 22
 1666 0116 0023     		movs	r3, #0
 1667 0118 8DF80F30 		strb	r3, [sp, #15]
 1668 011c 00E0     		b	.L99
 1669              	.L102:
 619:libraries/zf_device/zf_device_imu963ra.c ****         }
 1670              		.loc 1 619 13
 1671 011e 00BF     		nop
 1672              	.L99:
 645:libraries/zf_device/zf_device_imu963ra.c ****     }while(0);
 646:libraries/zf_device/zf_device_imu963ra.c **** 
 647:libraries/zf_device/zf_device_imu963ra.c ****     return return_state;
 1673              		.loc 1 647 12
 1674 0120 9DF80F30 		ldrb	r3, [sp, #15]	@ zero_extendqisi2
 648:libraries/zf_device/zf_device_imu963ra.c **** }
 1675              		.loc 1 648 1
 1676 0124 1846     		mov	r0, r3
 1677 0126 05B0     		add	sp, sp, #20
 1678              		.cfi_def_cfa_offset 4
 1679              		@ sp needed
 1680 0128 5DF804FB 		ldr	pc, [sp], #4
 1681              		.cfi_endproc
 1682              	.LFE488:
 1684              		.section	.text.imu963ra_func_init,"ax",%progbits
 1685              		.align	1
 1686              		.p2align 4,,15
 1687              		.syntax unified
 1688              		.thumb
 1689              		.thumb_func
 1691              	imu963ra_func_init:
 1692              	.LFB489:
 649:libraries/zf_device/zf_device_imu963ra.c **** 
 650:libraries/zf_device/zf_device_imu963ra.c **** //-------------------------------------------------------------------------------------------------
 651:libraries/zf_device/zf_device_imu963ra.c **** // ÕćĮµĢ░ń«Ćõ╗ŗ     ÕłØÕ¦ŗÕī¢ IMU963RA µĪåµ×ČµÄźÕÅŻ
 652:libraries/zf_device/zf_device_imu963ra.c **** // ÕÅéµĢ░Ķ»┤µśÄ     *interface      IMU963RA ńÜäķĆÜõ┐ĪµÄźÕÅŻÕ»╣Ķ▒ĪµīćķÆł
 653:libraries/zf_device/zf_device_imu963ra.c **** // Ķ┐öÕø×ÕÅéµĢ░     uint8           µōŹõĮ£ńŖČµĆü ZF_NO_ERROR / IMU963RA_OPERATION_DONE - Õ«īµłÉ ÕģČ
 654:libraries/zf_device/zf_device_imu963ra.c **** // õĮ┐ńö©ńż║õŠŗ     imu963ra_func_init(interface);
 655:libraries/zf_device/zf_device_imu963ra.c **** // Õżćµ│©õ┐Īµü»     µ£¼µÄźÕÅŻõĖ║õ╝Āµä¤ÕÖ©µĪåµ×ČµÄźÕÅŻ Õ╣ČõĖŹńø┤µÄźÕ»╣ńö©µłĘÕ╝ĆµöŠ
 656:libraries/zf_device/zf_device_imu963ra.c **** //-------------------------------------------------------------------------------------------------
 657:libraries/zf_device/zf_device_imu963ra.c **** static uint8 imu963ra_func_init (imu_interface_obj_struct *interface)
 658:libraries/zf_device/zf_device_imu963ra.c **** {
 1693              		.loc 1 658 1
 1694              		.cfi_startproc
 1695              		@ args = 0, pretend = 0, frame = 24
 1696              		@ frame_needed = 0, uses_anonymous_args = 0
 1697 0000 00B5     		push	{lr}
 1698              		.cfi_def_cfa_offset 4
 1699              		.cfi_offset 14, -4
 1700 0002 87B0     		sub	sp, sp, #28
 1701              		.cfi_def_cfa_offset 32
 1702 0004 0190     		str	r0, [sp, #4]
 659:libraries/zf_device/zf_device_imu963ra.c ****     imu963ra_operation_state_enum   return_state = IMU963RA_ERROR_UNKNOW_ERROR;
 1703              		.loc 1 659 37
 1704 0006 0123     		movs	r3, #1
 1705 0008 8DF81730 		strb	r3, [sp, #23]
 1706              	.LBB7:
 660:libraries/zf_device/zf_device_imu963ra.c **** 
 661:libraries/zf_device/zf_device_imu963ra.c ****     do
 662:libraries/zf_device/zf_device_imu963ra.c ****     {
 663:libraries/zf_device/zf_device_imu963ra.c ****         imu_interface_write_8bit_register(interface, IMU963RA_DEV_ADDR, IMU963RA_INT1_CTRL, 0x03); 
 1707              		.loc 1 663 9
 1708 000c 0323     		movs	r3, #3
 1709 000e 0D22     		movs	r2, #13
 1710 0010 6B21     		movs	r1, #107
 1711 0012 0198     		ldr	r0, [sp, #4]
 1712 0014 FFF7FEFF 		bl	imu_interface_write_8bit_register
 664:libraries/zf_device/zf_device_imu963ra.c **** 
 665:libraries/zf_device/zf_device_imu963ra.c ****         uint8 register_temp = 0;
 1713              		.loc 1 665 15
 1714 0018 0023     		movs	r3, #0
 1715 001a 8DF81630 		strb	r3, [sp, #22]
 666:libraries/zf_device/zf_device_imu963ra.c **** 
 667:libraries/zf_device/zf_device_imu963ra.c ****         if(imu_interface_assert(
 668:libraries/zf_device/zf_device_imu963ra.c ****                     IMU_ACC_OUTPUT_RATE_4_DIV   <= IMU_ACC_OUTPUT_RATE_DEFAULT
 669:libraries/zf_device/zf_device_imu963ra.c ****                 &&  IMU_ACC_OUTPUT_RATE_128_MUL >= IMU_ACC_OUTPUT_RATE_DEFAULT))
 670:libraries/zf_device/zf_device_imu963ra.c ****         {
 671:libraries/zf_device/zf_device_imu963ra.c ****             return_state = IMU963RA_ERROR_SET_ACC_OUTPUT_RATE_ERROR;
 672:libraries/zf_device/zf_device_imu963ra.c ****             break;
 673:libraries/zf_device/zf_device_imu963ra.c ****         }
 674:libraries/zf_device/zf_device_imu963ra.c ****         register_temp = ((IMU_ACC_OUTPUT_RATE_DEFAULT - 5) << 4);
 1716              		.loc 1 674 23
 1717 001e 3023     		movs	r3, #48
 1718 0020 8DF81630 		strb	r3, [sp, #22]
 675:libraries/zf_device/zf_device_imu963ra.c ****         if(imu_interface_assert(
 676:libraries/zf_device/zf_device_imu963ra.c ****                     IMU_ACC_RANGE_SGN_2G    <= IMU_ACC_RANGE_DEFAULT
 677:libraries/zf_device/zf_device_imu963ra.c ****                 &&  IMU_ACC_RANGE_SGN_16G   >= IMU_ACC_RANGE_DEFAULT))
 678:libraries/zf_device/zf_device_imu963ra.c ****         {
 679:libraries/zf_device/zf_device_imu963ra.c ****             return_state = IMU963RA_ERROR_SET_ACC_RANGE_ERROR;
 680:libraries/zf_device/zf_device_imu963ra.c ****             break;
 681:libraries/zf_device/zf_device_imu963ra.c ****         }
 682:libraries/zf_device/zf_device_imu963ra.c ****         const uint8 acc_range_list[6] = {0x00, 0x00, 0x00, 0x08, 0x0C, 0x04};
 1719              		.loc 1 682 21
 1720 0024 4D4A     		ldr	r2, .L105
 1721 0026 04AB     		add	r3, sp, #16
 1722 0028 92E80300 		ldm	r2, {r0, r1}
 1723 002c 1860     		str	r0, [r3]
 1724 002e 0433     		adds	r3, r3, #4
 1725 0030 1980     		strh	r1, [r3]	@ movhi
 683:libraries/zf_device/zf_device_imu963ra.c ****         register_temp |= acc_range_list[IMU_ACC_RANGE_DEFAULT];
 1726              		.loc 1 683 40
 1727 0032 9DF81420 		ldrb	r2, [sp, #20]	@ zero_extendqisi2
 1728              		.loc 1 683 23
 1729 0036 9DF81630 		ldrb	r3, [sp, #22]
 1730 003a 1343     		orrs	r3, r3, r2
 1731 003c 8DF81630 		strb	r3, [sp, #22]
 684:libraries/zf_device/zf_device_imu963ra.c ****         imu_interface_write_8bit_register(interface, IMU963RA_DEV_ADDR, IMU963RA_CTRL1_XL, register
 1732              		.loc 1 684 9
 1733 0040 9DF81630 		ldrb	r3, [sp, #22]	@ zero_extendqisi2
 1734 0044 1022     		movs	r2, #16
 1735 0046 6B21     		movs	r1, #107
 1736 0048 0198     		ldr	r0, [sp, #4]
 1737 004a FFF7FEFF 		bl	imu_interface_write_8bit_register
 685:libraries/zf_device/zf_device_imu963ra.c **** 
 686:libraries/zf_device/zf_device_imu963ra.c ****         if(imu_interface_assert(
 687:libraries/zf_device/zf_device_imu963ra.c ****                     IMU_GYRO_OUTPUT_RATE_4_DIV      <= IMU_GYRO_OUTPUT_RATE_DEFAULT
 688:libraries/zf_device/zf_device_imu963ra.c ****                 &&  IMU_GYRO_OUTPUT_RATE_128_MUL    >= IMU_GYRO_OUTPUT_RATE_DEFAULT))
 689:libraries/zf_device/zf_device_imu963ra.c ****         {
 690:libraries/zf_device/zf_device_imu963ra.c ****             return_state = IMU963RA_ERROR_SET_GYRO_OUTPUT_RATE_ERROR;
 691:libraries/zf_device/zf_device_imu963ra.c ****             break;
 692:libraries/zf_device/zf_device_imu963ra.c ****         }
 693:libraries/zf_device/zf_device_imu963ra.c ****         register_temp = ((IMU_GYRO_OUTPUT_RATE_DEFAULT - 5) << 4);
 1738              		.loc 1 693 23
 1739 004e 5023     		movs	r3, #80
 1740 0050 8DF81630 		strb	r3, [sp, #22]
 694:libraries/zf_device/zf_device_imu963ra.c ****         if(imu_interface_assert(
 695:libraries/zf_device/zf_device_imu963ra.c ****                     IMU_GYRO_RANGE_SGN_125DPS   <= IMU_GYRO_RANGE_DEFAULT
 696:libraries/zf_device/zf_device_imu963ra.c ****                 &&  IMU_GYRO_RANGE_SGN_4000DPS  >= IMU_GYRO_RANGE_DEFAULT))
 697:libraries/zf_device/zf_device_imu963ra.c ****         {
 698:libraries/zf_device/zf_device_imu963ra.c ****             return_state = IMU963RA_ERROR_SET_GYRO_RANGE_ERROR;
 699:libraries/zf_device/zf_device_imu963ra.c ****             break;
 700:libraries/zf_device/zf_device_imu963ra.c ****         }
 701:libraries/zf_device/zf_device_imu963ra.c ****         const uint8 gyro_range_list[8] = {0x00, 0x00, 0x02, 0x00, 0x04, 0x08, 0x0C, 0x01};
 1741              		.loc 1 701 21
 1742 0054 424A     		ldr	r2, .L105+4
 1743 0056 02AB     		add	r3, sp, #8
 1744 0058 92E80300 		ldm	r2, {r0, r1}
 1745 005c 83E80300 		stm	r3, {r0, r1}
 702:libraries/zf_device/zf_device_imu963ra.c ****         register_temp |= gyro_range_list[IMU_GYRO_RANGE_DEFAULT];
 1746              		.loc 1 702 41
 1747 0060 9DF80E20 		ldrb	r2, [sp, #14]	@ zero_extendqisi2
 1748              		.loc 1 702 23
 1749 0064 9DF81630 		ldrb	r3, [sp, #22]
 1750 0068 1343     		orrs	r3, r3, r2
 1751 006a 8DF81630 		strb	r3, [sp, #22]
 703:libraries/zf_device/zf_device_imu963ra.c ****         imu_interface_write_8bit_register(interface, IMU963RA_DEV_ADDR, IMU963RA_CTRL2_G, register_
 1752              		.loc 1 703 9
 1753 006e 9DF81630 		ldrb	r3, [sp, #22]	@ zero_extendqisi2
 1754 0072 1122     		movs	r2, #17
 1755 0074 6B21     		movs	r1, #107
 1756 0076 0198     		ldr	r0, [sp, #4]
 1757 0078 FFF7FEFF 		bl	imu_interface_write_8bit_register
 704:libraries/zf_device/zf_device_imu963ra.c **** 
 705:libraries/zf_device/zf_device_imu963ra.c ****         imu_interface_write_8bit_register(interface, IMU963RA_DEV_ADDR, IMU963RA_CTRL3_C, 0x44);   
 1758              		.loc 1 705 9
 1759 007c 4423     		movs	r3, #68
 1760 007e 1222     		movs	r2, #18
 1761 0080 6B21     		movs	r1, #107
 1762 0082 0198     		ldr	r0, [sp, #4]
 1763 0084 FFF7FEFF 		bl	imu_interface_write_8bit_register
 706:libraries/zf_device/zf_device_imu963ra.c ****         imu_interface_write_8bit_register(interface, IMU963RA_DEV_ADDR, IMU963RA_CTRL4_C, 0x02);   
 1764              		.loc 1 706 9
 1765 0088 0223     		movs	r3, #2
 1766 008a 1322     		movs	r2, #19
 1767 008c 6B21     		movs	r1, #107
 1768 008e 0198     		ldr	r0, [sp, #4]
 1769 0090 FFF7FEFF 		bl	imu_interface_write_8bit_register
 707:libraries/zf_device/zf_device_imu963ra.c ****         imu_interface_write_8bit_register(interface, IMU963RA_DEV_ADDR, IMU963RA_CTRL5_C, 0x00);   
 1770              		.loc 1 707 9
 1771 0094 0023     		movs	r3, #0
 1772 0096 1422     		movs	r2, #20
 1773 0098 6B21     		movs	r1, #107
 1774 009a 0198     		ldr	r0, [sp, #4]
 1775 009c FFF7FEFF 		bl	imu_interface_write_8bit_register
 708:libraries/zf_device/zf_device_imu963ra.c ****         imu_interface_write_8bit_register(interface, IMU963RA_DEV_ADDR, IMU963RA_CTRL6_C, 0x00);   
 1776              		.loc 1 708 9
 1777 00a0 0023     		movs	r3, #0
 1778 00a2 1522     		movs	r2, #21
 1779 00a4 6B21     		movs	r1, #107
 1780 00a6 0198     		ldr	r0, [sp, #4]
 1781 00a8 FFF7FEFF 		bl	imu_interface_write_8bit_register
 709:libraries/zf_device/zf_device_imu963ra.c ****         imu_interface_write_8bit_register(interface, IMU963RA_DEV_ADDR, IMU963RA_CTRL7_G, 0x00);   
 1782              		.loc 1 709 9
 1783 00ac 0023     		movs	r3, #0
 1784 00ae 1622     		movs	r2, #22
 1785 00b0 6B21     		movs	r1, #107
 1786 00b2 0198     		ldr	r0, [sp, #4]
 1787 00b4 FFF7FEFF 		bl	imu_interface_write_8bit_register
 710:libraries/zf_device/zf_device_imu963ra.c ****         imu_interface_write_8bit_register(interface, IMU963RA_DEV_ADDR, IMU963RA_CTRL9_XL, 0x01);  
 1788              		.loc 1 710 9
 1789 00b8 0123     		movs	r3, #1
 1790 00ba 1822     		movs	r2, #24
 1791 00bc 6B21     		movs	r1, #107
 1792 00be 0198     		ldr	r0, [sp, #4]
 1793 00c0 FFF7FEFF 		bl	imu_interface_write_8bit_register
 711:libraries/zf_device/zf_device_imu963ra.c **** 
 712:libraries/zf_device/zf_device_imu963ra.c ****         return_state = IMU963RA_OPERATION_DONE;
 1794              		.loc 1 712 22
 1795 00c4 0023     		movs	r3, #0
 1796 00c6 8DF81730 		strb	r3, [sp, #23]
 713:libraries/zf_device/zf_device_imu963ra.c ****         imu_interface_write_8bit_register(interface, IMU963RA_DEV_ADDR, IMU963RA_FUNC_CFG_ACCESS, 0
 1797              		.loc 1 713 9
 1798 00ca 4023     		movs	r3, #64
 1799 00cc 0122     		movs	r2, #1
 1800 00ce 6B21     		movs	r1, #107
 1801 00d0 0198     		ldr	r0, [sp, #4]
 1802 00d2 FFF7FEFF 		bl	imu_interface_write_8bit_register
 714:libraries/zf_device/zf_device_imu963ra.c ****         do
 715:libraries/zf_device/zf_device_imu963ra.c ****         {
 716:libraries/zf_device/zf_device_imu963ra.c ****             if(imu_interface_assert(
 717:libraries/zf_device/zf_device_imu963ra.c ****                     (   IMU_MAG_OUTPUT_RATE_4_DIV   <= IMU_MAG_OUTPUT_RATE_DEFAULT
 718:libraries/zf_device/zf_device_imu963ra.c ****                     &&  IMU_MAG_OUTPUT_RATE_4_MUL   >= IMU_MAG_OUTPUT_RATE_DEFAULT)
 719:libraries/zf_device/zf_device_imu963ra.c ****                 &&  (   IMU_MAG_OUTPUT_RATE_2_DIV   != IMU_MAG_OUTPUT_RATE_DEFAULT)))
 720:libraries/zf_device/zf_device_imu963ra.c ****             {
 721:libraries/zf_device/zf_device_imu963ra.c ****                 return_state = IMU963RA_ERROR_SET_MAG_OUTPUT_RATE_ERROR;
 722:libraries/zf_device/zf_device_imu963ra.c ****                 break;
 723:libraries/zf_device/zf_device_imu963ra.c ****             }
 724:libraries/zf_device/zf_device_imu963ra.c ****             register_temp =
 1803              		.loc 1 724 27
 1804 00d6 0123     		movs	r3, #1
 1805 00d8 8DF81630 		strb	r3, [sp, #22]
 725:libraries/zf_device/zf_device_imu963ra.c ****                     (IMU_MAG_OUTPUT_RATE_DEFAULT == IMU_MAG_OUTPUT_RATE_4_DIV)
 726:libraries/zf_device/zf_device_imu963ra.c ****                 ?   (0)
 727:libraries/zf_device/zf_device_imu963ra.c ****                 :   (IMU_MAG_OUTPUT_RATE_DEFAULT - 7);
 728:libraries/zf_device/zf_device_imu963ra.c ****             register_temp = (register_temp << 2);
 1806              		.loc 1 728 27
 1807 00dc 9DF81630 		ldrb	r3, [sp, #22]
 1808 00e0 9B00     		lsls	r3, r3, #2
 1809 00e2 8DF81630 		strb	r3, [sp, #22]
 729:libraries/zf_device/zf_device_imu963ra.c ****             if(imu_interface_assert(
 730:libraries/zf_device/zf_device_imu963ra.c ****                         IMU_MAG_RANGE_2G    <= IMU_MAG_RANGE_DEFAULT
 731:libraries/zf_device/zf_device_imu963ra.c ****                     &&  IMU_MAG_RANGE_8G    >= IMU_MAG_RANGE_DEFAULT))
 732:libraries/zf_device/zf_device_imu963ra.c ****             {
 733:libraries/zf_device/zf_device_imu963ra.c ****                 return_state = IMU963RA_ERROR_SET_MAG_RANGE_ERROR;
 734:libraries/zf_device/zf_device_imu963ra.c ****                 break;
 735:libraries/zf_device/zf_device_imu963ra.c ****             }
 736:libraries/zf_device/zf_device_imu963ra.c ****             register_temp |= ((IMU_MAG_RANGE_DEFAULT - 2) << 4);
 1810              		.loc 1 736 27
 1811 00e6 9DF81630 		ldrb	r3, [sp, #22]
 1812 00ea 43F01003 		orr	r3, r3, #16
 1813 00ee 8DF81630 		strb	r3, [sp, #22]
 737:libraries/zf_device/zf_device_imu963ra.c ****             imu963ra_write_mag_register(interface, IMU963RA_MAG_ADDR, IMU963RA_MAG_CONTROL1, regist
 1814              		.loc 1 737 13
 1815 00f2 9DF81630 		ldrb	r3, [sp, #22]
 1816 00f6 43F00103 		orr	r3, r3, #1
 1817 00fa DBB2     		uxtb	r3, r3
 1818 00fc 0922     		movs	r2, #9
 1819 00fe 0D21     		movs	r1, #13
 1820 0100 0198     		ldr	r0, [sp, #4]
 1821 0102 FFF7FEFF 		bl	imu963ra_write_mag_register
 738:libraries/zf_device/zf_device_imu963ra.c ****             imu963ra_write_mag_register(interface, IMU963RA_MAG_ADDR, IMU963RA_MAG_FBR, 0x01);
 1822              		.loc 1 738 13
 1823 0106 0123     		movs	r3, #1
 1824 0108 0B22     		movs	r2, #11
 1825 010a 0D21     		movs	r1, #13
 1826 010c 0198     		ldr	r0, [sp, #4]
 1827 010e FFF7FEFF 		bl	imu963ra_write_mag_register
 739:libraries/zf_device/zf_device_imu963ra.c **** 
 740:libraries/zf_device/zf_device_imu963ra.c ****             imu_interface_write_8bit_register(interface, IMU963RA_DEV_ADDR, IMU963RA_SLV0_ADD, (IMU
 1828              		.loc 1 740 13
 1829 0112 1B23     		movs	r3, #27
 1830 0114 1522     		movs	r2, #21
 1831 0116 6B21     		movs	r1, #107
 1832 0118 0198     		ldr	r0, [sp, #4]
 1833 011a FFF7FEFF 		bl	imu_interface_write_8bit_register
 741:libraries/zf_device/zf_device_imu963ra.c ****             imu_interface_write_8bit_register(interface, IMU963RA_DEV_ADDR, IMU963RA_SLV0_SUBADD, I
 1834              		.loc 1 741 13
 1835 011e 0023     		movs	r3, #0
 1836 0120 1622     		movs	r2, #22
 1837 0122 6B21     		movs	r1, #107
 1838 0124 0198     		ldr	r0, [sp, #4]
 1839 0126 FFF7FEFF 		bl	imu_interface_write_8bit_register
 742:libraries/zf_device/zf_device_imu963ra.c ****             imu_interface_write_8bit_register(interface, IMU963RA_DEV_ADDR, IMU963RA_SLV0_CONFIG, 0
 1840              		.loc 1 742 13
 1841 012a 0623     		movs	r3, #6
 1842 012c 1722     		movs	r2, #23
 1843 012e 6B21     		movs	r1, #107
 1844 0130 0198     		ldr	r0, [sp, #4]
 1845 0132 FFF7FEFF 		bl	imu_interface_write_8bit_register
 743:libraries/zf_device/zf_device_imu963ra.c ****             imu_interface_write_8bit_register(interface, IMU963RA_DEV_ADDR, IMU963RA_MASTER_CONFIG,
 1846              		.loc 1 743 13
 1847 0136 6C23     		movs	r3, #108
 1848 0138 1422     		movs	r2, #20
 1849 013a 6B21     		movs	r1, #107
 1850 013c 0198     		ldr	r0, [sp, #4]
 1851 013e FFF7FEFF 		bl	imu_interface_write_8bit_register
 744:libraries/zf_device/zf_device_imu963ra.c ****         }while(0);
 745:libraries/zf_device/zf_device_imu963ra.c ****         imu_interface_write_8bit_register(interface, IMU963RA_DEV_ADDR, IMU963RA_FUNC_CFG_ACCESS, 0
 1852              		.loc 1 745 9
 1853 0142 0023     		movs	r3, #0
 1854 0144 0122     		movs	r2, #1
 1855 0146 6B21     		movs	r1, #107
 1856 0148 0198     		ldr	r0, [sp, #4]
 1857 014a FFF7FEFF 		bl	imu_interface_write_8bit_register
 1858              	.LBE7:
 746:libraries/zf_device/zf_device_imu963ra.c ****     }while(0);
 747:libraries/zf_device/zf_device_imu963ra.c **** 
 748:libraries/zf_device/zf_device_imu963ra.c ****     return return_state;
 1859              		.loc 1 748 12
 1860 014e 9DF81730 		ldrb	r3, [sp, #23]	@ zero_extendqisi2
 749:libraries/zf_device/zf_device_imu963ra.c **** }
 1861              		.loc 1 749 1
 1862 0152 1846     		mov	r0, r3
 1863 0154 07B0     		add	sp, sp, #28
 1864              		.cfi_def_cfa_offset 4
 1865              		@ sp needed
 1866 0156 5DF804FB 		ldr	pc, [sp], #4
 1867              	.L106:
 1868 015a 00BF     		.align	2
 1869              	.L105:
 1870 015c 2C000000 		.word	.LC4
 1871 0160 34000000 		.word	.LC5
 1872              		.cfi_endproc
 1873              	.LFE489:
 1875              		.section	.rodata
 1876              		.align	2
 1877              	.LC0:
 1878 003c E3128046 		.word	1182798563
 1879 0040 E3120046 		.word	1174409955
 1880 0044 E3128045 		.word	1166021347
 1881 0048 E3120045 		.word	1157632739
 1882              		.section	.text.imu963ra_get_physical_acc,"ax",%progbits
 1883              		.align	1
 1884              		.p2align 4,,15
 1885              		.global	imu963ra_get_physical_acc
 1886              		.syntax unified
 1887              		.thumb
 1888              		.thumb_func
 1890              	imu963ra_get_physical_acc:
 1891              	.LFB490:
 750:libraries/zf_device/zf_device_imu963ra.c **** 
 751:libraries/zf_device/zf_device_imu963ra.c **** //-------------------------------------------------------------------------------------------------
 752:libraries/zf_device/zf_device_imu963ra.c **** // ÕćĮµĢ░ń«Ćõ╗ŗ     ĶÄĘÕÅ¢ IMU963RA ÕŖĀķĆ¤Õ║”Ķ«Īńē®ńÉåķćÅµĢ░µŹ«
 753:libraries/zf_device/zf_device_imu963ra.c **** // ÕÅéµĢ░Ķ»┤µśÄ     *result         IMU963RA ńÜäµĄŗķćÅµĢ░µŹ«ń╝ōÕå▓µīćķÆł
 754:libraries/zf_device/zf_device_imu963ra.c **** // Ķ┐öÕø×ÕÅéµĢ░     range           IMU963RA ÕŖĀķĆ¤Õ║”ķćÅń©ŗ Ķ»”Ķ¦ü zf_device_imu_interface.h õĖŁ i
 755:libraries/zf_device/zf_device_imu963ra.c **** // ÕÅéµĢ░Ķ»┤µśÄ     *physical_data  IMU963RA ńÜäńē®ńÉåķćÅµĢ░µŹ«ń╝ōÕå▓µīćķÆł
 756:libraries/zf_device/zf_device_imu963ra.c **** // Ķ┐öÕø×ÕÅéµĢ░     uint8           µōŹõĮ£ńŖČµĆü ZF_NO_ERROR / IMU963RA_OPERATION_DONE - Õ«īµłÉ ÕģČ
 757:libraries/zf_device/zf_device_imu963ra.c **** // õĮ┐ńö©ńż║õŠŗ     imu963ra_get_physical_acc(result, range, physical_data);
 758:libraries/zf_device/zf_device_imu963ra.c **** // Õżćµ│©õ┐Īµü»     µĀ╣µŹ«ķćÅń©ŗĶ┐øĶĪīńē®ńÉåķćÅµŹóń«Ś
 759:libraries/zf_device/zf_device_imu963ra.c **** //              ÕŖĀķĆ¤Õ║”Ķ«ĪķćÅń©ŗ ┬▒2  g   ĶÄĘÕÅ¢Õł░ńÜäÕŖĀķĆ¤Õ║”Ķ«ĪµĢ░µŹ«ķÖżõ╗ź (1000.0 / 0.061) Õ
 760:libraries/zf_device/zf_device_imu963ra.c **** //              ÕŖĀķĆ¤Õ║”Ķ«ĪķćÅń©ŗ ┬▒4  g   ĶÄĘÕÅ¢Õł░ńÜäÕŖĀķĆ¤Õ║”Ķ«ĪµĢ░µŹ«ķÖżõ╗ź (1000.0 / 0.122) Õ
 761:libraries/zf_device/zf_device_imu963ra.c **** //              ÕŖĀķĆ¤Õ║”Ķ«ĪķćÅń©ŗ ┬▒8  g   ĶÄĘÕÅ¢Õł░ńÜäÕŖĀķĆ¤Õ║”Ķ«ĪµĢ░µŹ«ķÖżõ╗ź (1000.0 / 0.244) Õ
 762:libraries/zf_device/zf_device_imu963ra.c **** //              ÕŖĀķĆ¤Õ║”Ķ«ĪķćÅń©ŗ ┬▒16 g   ĶÄĘÕÅ¢Õł░ńÜäÕŖĀķĆ¤Õ║”Ķ«ĪµĢ░µŹ«ķÖżõ╗ź (1000.0 / 0.488) Õ
 763:libraries/zf_device/zf_device_imu963ra.c **** //-------------------------------------------------------------------------------------------------
 764:libraries/zf_device/zf_device_imu963ra.c **** uint8 imu963ra_get_physical_acc (imu963ra_measurement_data_struct *result, imu_acc_range_enum range
 765:libraries/zf_device/zf_device_imu963ra.c **** {
 1892              		.loc 1 765 1
 1893              		.cfi_startproc
 1894              		@ args = 0, pretend = 0, frame = 40
 1895              		@ frame_needed = 0, uses_anonymous_args = 0
 1896 0000 10B5     		push	{r4, lr}
 1897              		.cfi_def_cfa_offset 8
 1898              		.cfi_offset 4, -8
 1899              		.cfi_offset 14, -4
 1900 0002 8CB0     		sub	sp, sp, #48
 1901              		.cfi_def_cfa_offset 56
 1902 0004 0590     		str	r0, [sp, #20]
 1903 0006 0B46     		mov	r3, r1
 1904 0008 0392     		str	r2, [sp, #12]
 1905 000a 8DF81330 		strb	r3, [sp, #19]
 766:libraries/zf_device/zf_device_imu963ra.c ****     imu963ra_operation_state_enum   return_state = IMU963RA_ERROR_UNKNOW_ERROR;
 1906              		.loc 1 766 37
 1907 000e 0123     		movs	r3, #1
 1908 0010 8DF82F30 		strb	r3, [sp, #47]
 1909              	.LBB8:
 767:libraries/zf_device/zf_device_imu963ra.c **** 
 768:libraries/zf_device/zf_device_imu963ra.c ****     do
 769:libraries/zf_device/zf_device_imu963ra.c ****     {
 770:libraries/zf_device/zf_device_imu963ra.c ****         if(imu_interface_assert(NULL != result))
 1910              		.loc 1 770 11
 1911 0014 059B     		ldr	r3, [sp, #20]
 1912 0016 002B     		cmp	r3, #0
 1913 0018 15D1     		bne	.L108
 1914              		.loc 1 770 12 discriminator 1
 1915 001a 059B     		ldr	r3, [sp, #20]
 1916 001c 002B     		cmp	r3, #0
 1917 001e 14BF     		ite	ne
 1918 0020 0123     		movne	r3, #1
 1919 0022 0023     		moveq	r3, #0
 1920 0024 DBB2     		uxtb	r3, r3
 1921 0026 1946     		mov	r1, r3
 1922 0028 40F20233 		movw	r3, #770
 1923 002c 0093     		str	r3, [sp]
 1924 002e 4A4B     		ldr	r3, .L117
 1925 0030 0022     		movs	r2, #0
 1926 0032 0220     		movs	r0, #2
 1927 0034 FFF7FEFF 		bl	debug_message_handler
 1928 0038 0346     		mov	r3, r0
 1929 003a 002B     		cmp	r3, #0
 1930 003c 03D0     		beq	.L108
 771:libraries/zf_device/zf_device_imu963ra.c ****         {
 772:libraries/zf_device/zf_device_imu963ra.c ****             return_state = IMU963RA_ERROR_DATA_BUFFER_NULL;
 1931              		.loc 1 772 26
 1932 003e 2423     		movs	r3, #36
 1933 0040 8DF82F30 		strb	r3, [sp, #47]
 773:libraries/zf_device/zf_device_imu963ra.c ****             break;
 1934              		.loc 1 773 13
 1935 0044 82E0     		b	.L115
 1936              	.L108:
 774:libraries/zf_device/zf_device_imu963ra.c ****         }
 775:libraries/zf_device/zf_device_imu963ra.c ****         if(imu_interface_assert(
 1937              		.loc 1 775 11
 1938 0046 9DF81330 		ldrb	r3, [sp, #19]	@ zero_extendqisi2
 1939 004a 012B     		cmp	r3, #1
 1940 004c 03D9     		bls	.L110
 1941              		.loc 1 775 12 discriminator 2
 1942 004e 9DF81330 		ldrb	r3, [sp, #19]	@ zero_extendqisi2
 1943 0052 052B     		cmp	r3, #5
 1944 0054 1AD9     		bls	.L111
 1945              	.L110:
 1946              		.loc 1 775 12 is_stmt 0 discriminator 3
 1947 0056 9DF81330 		ldrb	r3, [sp, #19]	@ zero_extendqisi2
 1948 005a 012B     		cmp	r3, #1
 1949 005c 05D9     		bls	.L112
 1950              		.loc 1 775 12 discriminator 4
 1951 005e 9DF81330 		ldrb	r3, [sp, #19]	@ zero_extendqisi2
 1952 0062 052B     		cmp	r3, #5
 1953 0064 01D8     		bhi	.L112
 1954              		.loc 1 775 12 discriminator 6
 1955 0066 0123     		movs	r3, #1
 1956 0068 00E0     		b	.L113
 1957              	.L112:
 1958              		.loc 1 775 12 discriminator 7
 1959 006a 0023     		movs	r3, #0
 1960              	.L113:
 1961              		.loc 1 775 12 discriminator 9
 1962 006c D9B2     		uxtb	r1, r3
 1963 006e 40F20733 		movw	r3, #775
 1964 0072 0093     		str	r3, [sp]
 1965 0074 384B     		ldr	r3, .L117
 1966 0076 0022     		movs	r2, #0
 1967 0078 0220     		movs	r0, #2
 1968 007a FFF7FEFF 		bl	debug_message_handler
 1969 007e 0346     		mov	r3, r0
 1970 0080 002B     		cmp	r3, #0
 1971 0082 03D0     		beq	.L111
 776:libraries/zf_device/zf_device_imu963ra.c ****                     IMU_ACC_RANGE_SGN_2G   <= range
 777:libraries/zf_device/zf_device_imu963ra.c ****                 &&  IMU_ACC_RANGE_SGN_16G  >= range))
 778:libraries/zf_device/zf_device_imu963ra.c ****         {
 779:libraries/zf_device/zf_device_imu963ra.c ****             return_state = IMU963RA_ERROR_SET_ACC_RANGE_ERROR;
 1972              		.loc 1 779 26 is_stmt 1
 1973 0084 2923     		movs	r3, #41
 1974 0086 8DF82F30 		strb	r3, [sp, #47]
 780:libraries/zf_device/zf_device_imu963ra.c ****             break;
 1975              		.loc 1 780 13
 1976 008a 5FE0     		b	.L115
 1977              	.L111:
 781:libraries/zf_device/zf_device_imu963ra.c ****         }
 782:libraries/zf_device/zf_device_imu963ra.c ****         if(imu_interface_assert(NULL != physical_data))
 1978              		.loc 1 782 11
 1979 008c 039B     		ldr	r3, [sp, #12]
 1980 008e 002B     		cmp	r3, #0
 1981 0090 15D1     		bne	.L114
 1982              		.loc 1 782 12 discriminator 1
 1983 0092 039B     		ldr	r3, [sp, #12]
 1984 0094 002B     		cmp	r3, #0
 1985 0096 14BF     		ite	ne
 1986 0098 0123     		movne	r3, #1
 1987 009a 0023     		moveq	r3, #0
 1988 009c DBB2     		uxtb	r3, r3
 1989 009e 1946     		mov	r1, r3
 1990 00a0 40F20E33 		movw	r3, #782
 1991 00a4 0093     		str	r3, [sp]
 1992 00a6 2C4B     		ldr	r3, .L117
 1993 00a8 0022     		movs	r2, #0
 1994 00aa 0220     		movs	r0, #2
 1995 00ac FFF7FEFF 		bl	debug_message_handler
 1996 00b0 0346     		mov	r3, r0
 1997 00b2 002B     		cmp	r3, #0
 1998 00b4 03D0     		beq	.L114
 783:libraries/zf_device/zf_device_imu963ra.c ****         {
 784:libraries/zf_device/zf_device_imu963ra.c ****             return_state = IMU963RA_ERROR_DATA_BUFFER_NULL;
 1999              		.loc 1 784 26
 2000 00b6 2423     		movs	r3, #36
 2001 00b8 8DF82F30 		strb	r3, [sp, #47]
 785:libraries/zf_device/zf_device_imu963ra.c ****             break;
 2002              		.loc 1 785 13
 2003 00bc 46E0     		b	.L115
 2004              	.L114:
 786:libraries/zf_device/zf_device_imu963ra.c ****         }
 787:libraries/zf_device/zf_device_imu963ra.c ****         const float transition_factor[4] = {1000.0 / 0.061, 1000.0 / 0.122, 1000.0 / 0.244, 1000.0 
 2005              		.loc 1 787 21
 2006 00be 274B     		ldr	r3, .L117+4
 2007 00c0 07AC     		add	r4, sp, #28
 2008 00c2 0FCB     		ldm	r3, {r0, r1, r2, r3}
 2009 00c4 84E80F00 		stm	r4, {r0, r1, r2, r3}
 788:libraries/zf_device/zf_device_imu963ra.c ****         physical_data->x  = (float)result->x / transition_factor[range - IMU_ACC_RANGE_SGN_2G];
 2010              		.loc 1 788 42
 2011 00c8 059B     		ldr	r3, [sp, #20]
 2012 00ca B3F90030 		ldrsh	r3, [r3]
 2013              		.loc 1 788 29
 2014 00ce 07EE903A 		vmov	s15, r3	@ int
 2015 00d2 F8EEE76A 		vcvt.f32.s32	s13, s15
 2016              		.loc 1 788 72
 2017 00d6 9DF81330 		ldrb	r3, [sp, #19]	@ zero_extendqisi2
 2018 00da 023B     		subs	r3, r3, #2
 2019              		.loc 1 788 65
 2020 00dc 9B00     		lsls	r3, r3, #2
 2021 00de 3033     		adds	r3, r3, #48
 2022 00e0 6B44     		add	r3, sp, r3
 2023 00e2 143B     		subs	r3, r3, #20
 2024 00e4 93ED007A 		vldr.32	s14, [r3]
 2025              		.loc 1 788 46
 2026 00e8 C6EE877A 		vdiv.f32	s15, s13, s14
 2027              		.loc 1 788 27
 2028 00ec 039B     		ldr	r3, [sp, #12]
 2029 00ee C3ED007A 		vstr.32	s15, [r3]
 789:libraries/zf_device/zf_device_imu963ra.c ****         physical_data->y  = (float)result->y / transition_factor[range - IMU_ACC_RANGE_SGN_2G];
 2030              		.loc 1 789 42
 2031 00f2 059B     		ldr	r3, [sp, #20]
 2032 00f4 B3F90230 		ldrsh	r3, [r3, #2]
 2033              		.loc 1 789 29
 2034 00f8 07EE903A 		vmov	s15, r3	@ int
 2035 00fc F8EEE76A 		vcvt.f32.s32	s13, s15
 2036              		.loc 1 789 72
 2037 0100 9DF81330 		ldrb	r3, [sp, #19]	@ zero_extendqisi2
 2038 0104 023B     		subs	r3, r3, #2
 2039              		.loc 1 789 65
 2040 0106 9B00     		lsls	r3, r3, #2
 2041 0108 3033     		adds	r3, r3, #48
 2042 010a 6B44     		add	r3, sp, r3
 2043 010c 143B     		subs	r3, r3, #20
 2044 010e 93ED007A 		vldr.32	s14, [r3]
 2045              		.loc 1 789 46
 2046 0112 C6EE877A 		vdiv.f32	s15, s13, s14
 2047              		.loc 1 789 27
 2048 0116 039B     		ldr	r3, [sp, #12]
 2049 0118 C3ED017A 		vstr.32	s15, [r3, #4]
 790:libraries/zf_device/zf_device_imu963ra.c ****         physical_data->z  = (float)result->z / transition_factor[range - IMU_ACC_RANGE_SGN_2G];
 2050              		.loc 1 790 42
 2051 011c 059B     		ldr	r3, [sp, #20]
 2052 011e B3F90430 		ldrsh	r3, [r3, #4]
 2053              		.loc 1 790 29
 2054 0122 07EE903A 		vmov	s15, r3	@ int
 2055 0126 F8EEE76A 		vcvt.f32.s32	s13, s15
 2056              		.loc 1 790 72
 2057 012a 9DF81330 		ldrb	r3, [sp, #19]	@ zero_extendqisi2
 2058 012e 023B     		subs	r3, r3, #2
 2059              		.loc 1 790 65
 2060 0130 9B00     		lsls	r3, r3, #2
 2061 0132 3033     		adds	r3, r3, #48
 2062 0134 6B44     		add	r3, sp, r3
 2063 0136 143B     		subs	r3, r3, #20
 2064 0138 93ED007A 		vldr.32	s14, [r3]
 2065              		.loc 1 790 46
 2066 013c C6EE877A 		vdiv.f32	s15, s13, s14
 2067              		.loc 1 790 27
 2068 0140 039B     		ldr	r3, [sp, #12]
 2069 0142 C3ED027A 		vstr.32	s15, [r3, #8]
 791:libraries/zf_device/zf_device_imu963ra.c **** 
 792:libraries/zf_device/zf_device_imu963ra.c ****         return_state = IMU963RA_OPERATION_DONE;
 2070              		.loc 1 792 22
 2071 0146 0023     		movs	r3, #0
 2072 0148 8DF82F30 		strb	r3, [sp, #47]
 2073              	.L115:
 2074              	.LBE8:
 793:libraries/zf_device/zf_device_imu963ra.c ****     }while(0);
 794:libraries/zf_device/zf_device_imu963ra.c **** 
 795:libraries/zf_device/zf_device_imu963ra.c ****     return return_state;
 2075              		.loc 1 795 12
 2076 014c 9DF82F30 		ldrb	r3, [sp, #47]	@ zero_extendqisi2
 796:libraries/zf_device/zf_device_imu963ra.c **** }
 2077              		.loc 1 796 1
 2078 0150 1846     		mov	r0, r3
 2079 0152 0CB0     		add	sp, sp, #48
 2080              		.cfi_def_cfa_offset 8
 2081              		@ sp needed
 2082 0154 10BD     		pop	{r4, pc}
 2083              	.L118:
 2084 0156 00BF     		.align	2
 2085              	.L117:
 2086 0158 00000000 		.word	.LC3
 2087 015c 3C000000 		.word	.LC0
 2088              		.cfi_endproc
 2089              	.LFE490:
 2091              		.section	.rodata
 2092              		.align	2
 2093              	.LC1:
 2094 004c 49926443 		.word	1130664521
 2095 0050 4992E442 		.word	1122275913
 2096 0054 49926442 		.word	1113887305
 2097 0058 4992E441 		.word	1105498697
 2098 005c 49926441 		.word	1097110089
 2099 0060 4992E440 		.word	1088721481
 2100              		.section	.text.imu963ra_get_physical_gyro,"ax",%progbits
 2101              		.align	1
 2102              		.p2align 4,,15
 2103              		.global	imu963ra_get_physical_gyro
 2104              		.syntax unified
 2105              		.thumb
 2106              		.thumb_func
 2108              	imu963ra_get_physical_gyro:
 2109              	.LFB491:
 797:libraries/zf_device/zf_device_imu963ra.c **** 
 798:libraries/zf_device/zf_device_imu963ra.c **** //-------------------------------------------------------------------------------------------------
 799:libraries/zf_device/zf_device_imu963ra.c **** // ÕćĮµĢ░ń«Ćõ╗ŗ     ĶÄĘÕÅ¢ IMU963RA ķÖĆĶ×║õ╗¬ńē®ńÉåķćÅµĢ░µŹ«
 800:libraries/zf_device/zf_device_imu963ra.c **** // ÕÅéµĢ░Ķ»┤µśÄ     *result         IMU963RA ńÜäµĄŗķćÅµĢ░µŹ«ń╝ōÕå▓µīćķÆł
 801:libraries/zf_device/zf_device_imu963ra.c **** // Ķ┐öÕø×ÕÅéµĢ░     range           IMU963RA ÕŖĀķĆ¤Õ║”ķćÅń©ŗ Ķ»”Ķ¦ü zf_device_imu_interface.h õĖŁ i
 802:libraries/zf_device/zf_device_imu963ra.c **** // ÕÅéµĢ░Ķ»┤µśÄ     *physical_data  IMU963RA ńÜäńē®ńÉåķćÅµĢ░µŹ«ń╝ōÕå▓µīćķÆł
 803:libraries/zf_device/zf_device_imu963ra.c **** // Ķ┐öÕø×ÕÅéµĢ░     uint8           µōŹõĮ£ńŖČµĆü ZF_NO_ERROR / IMU963RA_OPERATION_DONE - Õ«īµłÉ ÕģČ
 804:libraries/zf_device/zf_device_imu963ra.c **** // õĮ┐ńö©ńż║õŠŗ     imu963ra_get_physical_gyro(result, range, physical_data);
 805:libraries/zf_device/zf_device_imu963ra.c **** // Õżćµ│©õ┐Īµü»     µĀ╣µŹ«ķćÅń©ŗĶ┐øĶĪīńē®ńÉåķćÅµŹóń«Ś
 806:libraries/zf_device/zf_device_imu963ra.c **** //              ķÖĆĶ×║õ╗¬ķćÅń©ŗ ┬▒125  dps    ĶÄĘÕÅ¢Õł░ńÜäķÖĆĶ×║õ╗¬µĢ░µŹ«ķÖżõ╗ź (1000.0 / 4.375)  Õ
 807:libraries/zf_device/zf_device_imu963ra.c **** //              ķÖĆĶ×║õ╗¬ķćÅń©ŗ ┬▒250  dps    ĶÄĘÕÅ¢Õł░ńÜäķÖĆĶ×║õ╗¬µĢ░µŹ«ķÖżõ╗ź (1000.0 / 8.75 )  Õ
 808:libraries/zf_device/zf_device_imu963ra.c **** //              ķÖĆĶ×║õ╗¬ķćÅń©ŗ ┬▒500  dps    ĶÄĘÕÅ¢Õł░ńÜäķÖĆĶ×║õ╗¬µĢ░µŹ«ķÖżõ╗ź (1000.0 / 17.5 )  Õ
 809:libraries/zf_device/zf_device_imu963ra.c **** //              ķÖĆĶ×║õ╗¬ķćÅń©ŗ ┬▒1000 dps    ĶÄĘÕÅ¢Õł░ńÜäķÖĆĶ×║õ╗¬µĢ░µŹ«ķÖżõ╗ź (1000.0 / 35.0 )  Õ
 810:libraries/zf_device/zf_device_imu963ra.c **** //              ķÖĆĶ×║õ╗¬ķćÅń©ŗ ┬▒2000 dps    ĶÄĘÕÅ¢Õł░ńÜäķÖĆĶ×║õ╗¬µĢ░µŹ«ķÖżõ╗ź (1000.0 / 70.0 )  Õ
 811:libraries/zf_device/zf_device_imu963ra.c **** //              ķÖĆĶ×║õ╗¬ķćÅń©ŗ ┬▒4000 dps    ĶÄĘÕÅ¢Õł░ńÜäķÖĆĶ×║õ╗¬µĢ░µŹ«ķÖżõ╗ź (1000.0 / 140.0)  Õ
 812:libraries/zf_device/zf_device_imu963ra.c **** //-------------------------------------------------------------------------------------------------
 813:libraries/zf_device/zf_device_imu963ra.c **** uint8 imu963ra_get_physical_gyro (imu963ra_measurement_data_struct *result, imu_gyro_range_enum ran
 814:libraries/zf_device/zf_device_imu963ra.c **** {
 2110              		.loc 1 814 1
 2111              		.cfi_startproc
 2112              		@ args = 0, pretend = 0, frame = 48
 2113              		@ frame_needed = 0, uses_anonymous_args = 0
 2114 0000 30B5     		push	{r4, r5, lr}
 2115              		.cfi_def_cfa_offset 12
 2116              		.cfi_offset 4, -12
 2117              		.cfi_offset 5, -8
 2118              		.cfi_offset 14, -4
 2119 0002 8FB0     		sub	sp, sp, #60
 2120              		.cfi_def_cfa_offset 72
 2121 0004 0590     		str	r0, [sp, #20]
 2122 0006 0B46     		mov	r3, r1
 2123 0008 0392     		str	r2, [sp, #12]
 2124 000a 8DF81330 		strb	r3, [sp, #19]
 815:libraries/zf_device/zf_device_imu963ra.c ****     imu963ra_operation_state_enum   return_state = IMU963RA_ERROR_UNKNOW_ERROR;
 2125              		.loc 1 815 37
 2126 000e 0123     		movs	r3, #1
 2127 0010 8DF83730 		strb	r3, [sp, #55]
 2128              	.LBB9:
 816:libraries/zf_device/zf_device_imu963ra.c **** 
 817:libraries/zf_device/zf_device_imu963ra.c ****     do
 818:libraries/zf_device/zf_device_imu963ra.c ****     {
 819:libraries/zf_device/zf_device_imu963ra.c ****         if(imu_interface_assert(NULL != result))
 2129              		.loc 1 819 11
 2130 0014 059B     		ldr	r3, [sp, #20]
 2131 0016 002B     		cmp	r3, #0
 2132 0018 15D1     		bne	.L120
 2133              		.loc 1 819 12 discriminator 1
 2134 001a 059B     		ldr	r3, [sp, #20]
 2135 001c 002B     		cmp	r3, #0
 2136 001e 14BF     		ite	ne
 2137 0020 0123     		movne	r3, #1
 2138 0022 0023     		moveq	r3, #0
 2139 0024 DBB2     		uxtb	r3, r3
 2140 0026 1946     		mov	r1, r3
 2141 0028 40F23333 		movw	r3, #819
 2142 002c 0093     		str	r3, [sp]
 2143 002e 4C4B     		ldr	r3, .L129
 2144 0030 0022     		movs	r2, #0
 2145 0032 0220     		movs	r0, #2
 2146 0034 FFF7FEFF 		bl	debug_message_handler
 2147 0038 0346     		mov	r3, r0
 2148 003a 002B     		cmp	r3, #0
 2149 003c 03D0     		beq	.L120
 820:libraries/zf_device/zf_device_imu963ra.c ****         {
 821:libraries/zf_device/zf_device_imu963ra.c ****             return_state = IMU963RA_ERROR_DATA_BUFFER_NULL;
 2150              		.loc 1 821 26
 2151 003e 2423     		movs	r3, #36
 2152 0040 8DF83730 		strb	r3, [sp, #55]
 822:libraries/zf_device/zf_device_imu963ra.c ****             break;
 2153              		.loc 1 822 13
 2154 0044 86E0     		b	.L127
 2155              	.L120:
 823:libraries/zf_device/zf_device_imu963ra.c ****         }
 824:libraries/zf_device/zf_device_imu963ra.c ****         if(imu_interface_assert(
 2156              		.loc 1 824 11
 2157 0046 9DF81330 		ldrb	r3, [sp, #19]	@ zero_extendqisi2
 2158 004a 012B     		cmp	r3, #1
 2159 004c 03D9     		bls	.L122
 2160              		.loc 1 824 12 discriminator 2
 2161 004e 9DF81330 		ldrb	r3, [sp, #19]	@ zero_extendqisi2
 2162 0052 072B     		cmp	r3, #7
 2163 0054 1AD9     		bls	.L123
 2164              	.L122:
 2165              		.loc 1 824 12 is_stmt 0 discriminator 3
 2166 0056 9DF81330 		ldrb	r3, [sp, #19]	@ zero_extendqisi2
 2167 005a 012B     		cmp	r3, #1
 2168 005c 05D9     		bls	.L124
 2169              		.loc 1 824 12 discriminator 4
 2170 005e 9DF81330 		ldrb	r3, [sp, #19]	@ zero_extendqisi2
 2171 0062 072B     		cmp	r3, #7
 2172 0064 01D8     		bhi	.L124
 2173              		.loc 1 824 12 discriminator 6
 2174 0066 0123     		movs	r3, #1
 2175 0068 00E0     		b	.L125
 2176              	.L124:
 2177              		.loc 1 824 12 discriminator 7
 2178 006a 0023     		movs	r3, #0
 2179              	.L125:
 2180              		.loc 1 824 12 discriminator 9
 2181 006c D9B2     		uxtb	r1, r3
 2182 006e 4FF44E73 		mov	r3, #824
 2183 0072 0093     		str	r3, [sp]
 2184 0074 3A4B     		ldr	r3, .L129
 2185 0076 0022     		movs	r2, #0
 2186 0078 0220     		movs	r0, #2
 2187 007a FFF7FEFF 		bl	debug_message_handler
 2188 007e 0346     		mov	r3, r0
 2189 0080 002B     		cmp	r3, #0
 2190 0082 03D0     		beq	.L123
 825:libraries/zf_device/zf_device_imu963ra.c ****                     IMU_GYRO_RANGE_SGN_125DPS  <= range
 826:libraries/zf_device/zf_device_imu963ra.c ****                 &&  IMU_GYRO_RANGE_SGN_4000DPS >= range))
 827:libraries/zf_device/zf_device_imu963ra.c ****         {
 828:libraries/zf_device/zf_device_imu963ra.c ****             return_state = IMU963RA_ERROR_SET_GYRO_RANGE_ERROR;
 2191              		.loc 1 828 26 is_stmt 1
 2192 0084 2B23     		movs	r3, #43
 2193 0086 8DF83730 		strb	r3, [sp, #55]
 829:libraries/zf_device/zf_device_imu963ra.c ****             break;
 2194              		.loc 1 829 13
 2195 008a 63E0     		b	.L127
 2196              	.L123:
 830:libraries/zf_device/zf_device_imu963ra.c ****         }
 831:libraries/zf_device/zf_device_imu963ra.c ****         if(imu_interface_assert(NULL != physical_data))
 2197              		.loc 1 831 11
 2198 008c 039B     		ldr	r3, [sp, #12]
 2199 008e 002B     		cmp	r3, #0
 2200 0090 15D1     		bne	.L126
 2201              		.loc 1 831 12 discriminator 1
 2202 0092 039B     		ldr	r3, [sp, #12]
 2203 0094 002B     		cmp	r3, #0
 2204 0096 14BF     		ite	ne
 2205 0098 0123     		movne	r3, #1
 2206 009a 0023     		moveq	r3, #0
 2207 009c DBB2     		uxtb	r3, r3
 2208 009e 1946     		mov	r1, r3
 2209 00a0 40F23F33 		movw	r3, #831
 2210 00a4 0093     		str	r3, [sp]
 2211 00a6 2E4B     		ldr	r3, .L129
 2212 00a8 0022     		movs	r2, #0
 2213 00aa 0220     		movs	r0, #2
 2214 00ac FFF7FEFF 		bl	debug_message_handler
 2215 00b0 0346     		mov	r3, r0
 2216 00b2 002B     		cmp	r3, #0
 2217 00b4 03D0     		beq	.L126
 832:libraries/zf_device/zf_device_imu963ra.c ****         {
 833:libraries/zf_device/zf_device_imu963ra.c ****             return_state = IMU963RA_ERROR_DATA_BUFFER_NULL;
 2218              		.loc 1 833 26
 2219 00b6 2423     		movs	r3, #36
 2220 00b8 8DF83730 		strb	r3, [sp, #55]
 834:libraries/zf_device/zf_device_imu963ra.c ****             break;
 2221              		.loc 1 834 13
 2222 00bc 4AE0     		b	.L127
 2223              	.L126:
 835:libraries/zf_device/zf_device_imu963ra.c ****         }
 836:libraries/zf_device/zf_device_imu963ra.c ****         const float transition_factor[6] = 
 2224              		.loc 1 836 21
 2225 00be 294B     		ldr	r3, .L129+4
 2226 00c0 07AC     		add	r4, sp, #28
 2227 00c2 1D46     		mov	r5, r3
 2228 00c4 0FCD     		ldmia	r5!, {r0, r1, r2, r3}
 2229 00c6 0FC4     		stmia	r4!, {r0, r1, r2, r3}
 2230 00c8 95E80300 		ldm	r5, {r0, r1}
 2231 00cc 84E80300 		stm	r4, {r0, r1}
 837:libraries/zf_device/zf_device_imu963ra.c ****         {
 838:libraries/zf_device/zf_device_imu963ra.c ****             1000.0 / 4.375, 1000.0 / 8.75,  1000.0 / 17.5,
 839:libraries/zf_device/zf_device_imu963ra.c ****             1000.0 / 35.0,  1000.0 / 70.0,  1000.0 / 140.0,
 840:libraries/zf_device/zf_device_imu963ra.c ****         };
 841:libraries/zf_device/zf_device_imu963ra.c ****         physical_data->x  = (float)result->x / transition_factor[range - IMU_GYRO_RANGE_SGN_125DPS]
 2232              		.loc 1 841 42
 2233 00d0 059B     		ldr	r3, [sp, #20]
 2234 00d2 B3F90030 		ldrsh	r3, [r3]
 2235              		.loc 1 841 29
 2236 00d6 07EE903A 		vmov	s15, r3	@ int
 2237 00da F8EEE76A 		vcvt.f32.s32	s13, s15
 2238              		.loc 1 841 72
 2239 00de 9DF81330 		ldrb	r3, [sp, #19]	@ zero_extendqisi2
 2240 00e2 023B     		subs	r3, r3, #2
 2241              		.loc 1 841 65
 2242 00e4 9B00     		lsls	r3, r3, #2
 2243 00e6 3833     		adds	r3, r3, #56
 2244 00e8 6B44     		add	r3, sp, r3
 2245 00ea 1C3B     		subs	r3, r3, #28
 2246 00ec 93ED007A 		vldr.32	s14, [r3]
 2247              		.loc 1 841 46
 2248 00f0 C6EE877A 		vdiv.f32	s15, s13, s14
 2249              		.loc 1 841 27
 2250 00f4 039B     		ldr	r3, [sp, #12]
 2251 00f6 C3ED007A 		vstr.32	s15, [r3]
 842:libraries/zf_device/zf_device_imu963ra.c ****         physical_data->y  = (float)result->y / transition_factor[range - IMU_GYRO_RANGE_SGN_125DPS]
 2252              		.loc 1 842 42
 2253 00fa 059B     		ldr	r3, [sp, #20]
 2254 00fc B3F90230 		ldrsh	r3, [r3, #2]
 2255              		.loc 1 842 29
 2256 0100 07EE903A 		vmov	s15, r3	@ int
 2257 0104 F8EEE76A 		vcvt.f32.s32	s13, s15
 2258              		.loc 1 842 72
 2259 0108 9DF81330 		ldrb	r3, [sp, #19]	@ zero_extendqisi2
 2260 010c 023B     		subs	r3, r3, #2
 2261              		.loc 1 842 65
 2262 010e 9B00     		lsls	r3, r3, #2
 2263 0110 3833     		adds	r3, r3, #56
 2264 0112 6B44     		add	r3, sp, r3
 2265 0114 1C3B     		subs	r3, r3, #28
 2266 0116 93ED007A 		vldr.32	s14, [r3]
 2267              		.loc 1 842 46
 2268 011a C6EE877A 		vdiv.f32	s15, s13, s14
 2269              		.loc 1 842 27
 2270 011e 039B     		ldr	r3, [sp, #12]
 2271 0120 C3ED017A 		vstr.32	s15, [r3, #4]
 843:libraries/zf_device/zf_device_imu963ra.c ****         physical_data->z  = (float)result->z / transition_factor[range - IMU_GYRO_RANGE_SGN_125DPS]
 2272              		.loc 1 843 42
 2273 0124 059B     		ldr	r3, [sp, #20]
 2274 0126 B3F90430 		ldrsh	r3, [r3, #4]
 2275              		.loc 1 843 29
 2276 012a 07EE903A 		vmov	s15, r3	@ int
 2277 012e F8EEE76A 		vcvt.f32.s32	s13, s15
 2278              		.loc 1 843 72
 2279 0132 9DF81330 		ldrb	r3, [sp, #19]	@ zero_extendqisi2
 2280 0136 023B     		subs	r3, r3, #2
 2281              		.loc 1 843 65
 2282 0138 9B00     		lsls	r3, r3, #2
 2283 013a 3833     		adds	r3, r3, #56
 2284 013c 6B44     		add	r3, sp, r3
 2285 013e 1C3B     		subs	r3, r3, #28
 2286 0140 93ED007A 		vldr.32	s14, [r3]
 2287              		.loc 1 843 46
 2288 0144 C6EE877A 		vdiv.f32	s15, s13, s14
 2289              		.loc 1 843 27
 2290 0148 039B     		ldr	r3, [sp, #12]
 2291 014a C3ED027A 		vstr.32	s15, [r3, #8]
 844:libraries/zf_device/zf_device_imu963ra.c **** 
 845:libraries/zf_device/zf_device_imu963ra.c ****         return_state = IMU963RA_OPERATION_DONE;
 2292              		.loc 1 845 22
 2293 014e 0023     		movs	r3, #0
 2294 0150 8DF83730 		strb	r3, [sp, #55]
 2295              	.L127:
 2296              	.LBE9:
 846:libraries/zf_device/zf_device_imu963ra.c ****     }while(0);
 847:libraries/zf_device/zf_device_imu963ra.c **** 
 848:libraries/zf_device/zf_device_imu963ra.c ****     return return_state;
 2297              		.loc 1 848 12
 2298 0154 9DF83730 		ldrb	r3, [sp, #55]	@ zero_extendqisi2
 849:libraries/zf_device/zf_device_imu963ra.c **** }
 2299              		.loc 1 849 1
 2300 0158 1846     		mov	r0, r3
 2301 015a 0FB0     		add	sp, sp, #60
 2302              		.cfi_def_cfa_offset 12
 2303              		@ sp needed
 2304 015c 30BD     		pop	{r4, r5, pc}
 2305              	.L130:
 2306 015e 00BF     		.align	2
 2307              	.L129:
 2308 0160 00000000 		.word	.LC3
 2309 0164 4C000000 		.word	.LC1
 2310              		.cfi_endproc
 2311              	.LFE491:
 2313              		.section	.rodata
 2314              		.align	2
 2315              	.LC2:
 2316 0064 00803B46 		.word	1178304512
 2317 0068 00803B45 		.word	1161527296
 2318              		.section	.text.imu963ra_get_physical_mag,"ax",%progbits
 2319              		.align	1
 2320              		.p2align 4,,15
 2321              		.global	imu963ra_get_physical_mag
 2322              		.syntax unified
 2323              		.thumb
 2324              		.thumb_func
 2326              	imu963ra_get_physical_mag:
 2327              	.LFB492:
 850:libraries/zf_device/zf_device_imu963ra.c **** 
 851:libraries/zf_device/zf_device_imu963ra.c **** //-------------------------------------------------------------------------------------------------
 852:libraries/zf_device/zf_device_imu963ra.c **** // ÕćĮµĢ░ń«Ćõ╗ŗ     ĶÄĘÕÅ¢ IMU963RA Õ£░ńŻüĶ«Īńē®ńÉåķćÅµĢ░µŹ«
 853:libraries/zf_device/zf_device_imu963ra.c **** // ÕÅéµĢ░Ķ»┤µśÄ     *result         IMU963RA ńÜäµĄŗķćÅµĢ░µŹ«ń╝ōÕå▓µīćķÆł
 854:libraries/zf_device/zf_device_imu963ra.c **** // Ķ┐öÕø×ÕÅéµĢ░     range           IMU963RA ÕŖĀķĆ¤Õ║”ķćÅń©ŗ Ķ»”Ķ¦ü zf_device_imu_interface.h õĖŁ i
 855:libraries/zf_device/zf_device_imu963ra.c **** // ÕÅéµĢ░Ķ»┤µśÄ     *physical_data  IMU963RA ńÜäńē®ńÉåķćÅµĢ░µŹ«ń╝ōÕå▓µīćķÆł
 856:libraries/zf_device/zf_device_imu963ra.c **** // Ķ┐öÕø×ÕÅéµĢ░     uint8           µōŹõĮ£ńŖČµĆü ZF_NO_ERROR / IMU963RA_OPERATION_DONE - Õ«īµłÉ ÕģČ
 857:libraries/zf_device/zf_device_imu963ra.c **** // õĮ┐ńö©ńż║õŠŗ     imu963ra_get_physical_mag(result, range, physical_data);
 858:libraries/zf_device/zf_device_imu963ra.c **** // Õżćµ│©õ┐Īµü»     µĀ╣µŹ«ķćÅń©ŗĶ┐øĶĪīńē®ńÉåķćÅµŹóń«Ś
 859:libraries/zf_device/zf_device_imu963ra.c **** //              Õ£░ńŻüĶ«ĪķćÅń©ŗ 2G   ĶÄĘÕÅ¢Õł░ńÜäÕ£░ńŻüĶ«ĪµĢ░µŹ«ķÖżõ╗ź 12000 ÕÅ»õ╗źĶĮ¼Õī¢õĖ║ÕĖ”ńē®ń
 860:libraries/zf_device/zf_device_imu963ra.c **** //              Õ£░ńŻüĶ«ĪķćÅń©ŗ 8G   ĶÄĘÕÅ¢Õł░ńÜäÕ£░ńŻüĶ«ĪµĢ░µŹ«ķÖżõ╗ź  3000 ÕÅ»õ╗źĶĮ¼Õī¢õĖ║ÕĖ”ńē®ń
 861:libraries/zf_device/zf_device_imu963ra.c **** //-------------------------------------------------------------------------------------------------
 862:libraries/zf_device/zf_device_imu963ra.c **** uint8 imu963ra_get_physical_mag (imu963ra_measurement_data_struct *result, imu_mag_range_enum range
 863:libraries/zf_device/zf_device_imu963ra.c **** {
 2328              		.loc 1 863 1
 2329              		.cfi_startproc
 2330              		@ args = 0, pretend = 0, frame = 32
 2331              		@ frame_needed = 0, uses_anonymous_args = 0
 2332 0000 00B5     		push	{lr}
 2333              		.cfi_def_cfa_offset 4
 2334              		.cfi_offset 14, -4
 2335 0002 8BB0     		sub	sp, sp, #44
 2336              		.cfi_def_cfa_offset 48
 2337 0004 0590     		str	r0, [sp, #20]
 2338 0006 0B46     		mov	r3, r1
 2339 0008 0392     		str	r2, [sp, #12]
 2340 000a 8DF81330 		strb	r3, [sp, #19]
 864:libraries/zf_device/zf_device_imu963ra.c ****     imu963ra_operation_state_enum   return_state = IMU963RA_ERROR_UNKNOW_ERROR;
 2341              		.loc 1 864 37
 2342 000e 0123     		movs	r3, #1
 2343 0010 8DF82730 		strb	r3, [sp, #39]
 2344              	.LBB10:
 865:libraries/zf_device/zf_device_imu963ra.c **** 
 866:libraries/zf_device/zf_device_imu963ra.c ****     do
 867:libraries/zf_device/zf_device_imu963ra.c ****     {
 868:libraries/zf_device/zf_device_imu963ra.c ****         if(imu_interface_assert(NULL != result))
 2345              		.loc 1 868 11
 2346 0014 059B     		ldr	r3, [sp, #20]
 2347 0016 002B     		cmp	r3, #0
 2348 0018 15D1     		bne	.L132
 2349              		.loc 1 868 12 discriminator 1
 2350 001a 059B     		ldr	r3, [sp, #20]
 2351 001c 002B     		cmp	r3, #0
 2352 001e 14BF     		ite	ne
 2353 0020 0123     		movne	r3, #1
 2354 0022 0023     		moveq	r3, #0
 2355 0024 DBB2     		uxtb	r3, r3
 2356 0026 1946     		mov	r1, r3
 2357 0028 4FF45973 		mov	r3, #868
 2358 002c 0093     		str	r3, [sp]
 2359 002e 4B4B     		ldr	r3, .L141
 2360 0030 0022     		movs	r2, #0
 2361 0032 0220     		movs	r0, #2
 2362 0034 FFF7FEFF 		bl	debug_message_handler
 2363 0038 0346     		mov	r3, r0
 2364 003a 002B     		cmp	r3, #0
 2365 003c 03D0     		beq	.L132
 869:libraries/zf_device/zf_device_imu963ra.c ****         {
 870:libraries/zf_device/zf_device_imu963ra.c ****             return_state = IMU963RA_ERROR_DATA_BUFFER_NULL;
 2366              		.loc 1 870 26
 2367 003e 2423     		movs	r3, #36
 2368 0040 8DF82730 		strb	r3, [sp, #39]
 871:libraries/zf_device/zf_device_imu963ra.c ****             break;
 2369              		.loc 1 871 13
 2370 0044 83E0     		b	.L139
 2371              	.L132:
 872:libraries/zf_device/zf_device_imu963ra.c ****         }
 873:libraries/zf_device/zf_device_imu963ra.c ****         if(imu_interface_assert(
 2372              		.loc 1 873 11
 2373 0046 9DF81330 		ldrb	r3, [sp, #19]	@ zero_extendqisi2
 2374 004a 012B     		cmp	r3, #1
 2375 004c 03D9     		bls	.L134
 2376              		.loc 1 873 12 discriminator 2
 2377 004e 9DF81330 		ldrb	r3, [sp, #19]	@ zero_extendqisi2
 2378 0052 032B     		cmp	r3, #3
 2379 0054 1AD9     		bls	.L135
 2380              	.L134:
 2381              		.loc 1 873 12 is_stmt 0 discriminator 3
 2382 0056 9DF81330 		ldrb	r3, [sp, #19]	@ zero_extendqisi2
 2383 005a 012B     		cmp	r3, #1
 2384 005c 05D9     		bls	.L136
 2385              		.loc 1 873 12 discriminator 4
 2386 005e 9DF81330 		ldrb	r3, [sp, #19]	@ zero_extendqisi2
 2387 0062 032B     		cmp	r3, #3
 2388 0064 01D8     		bhi	.L136
 2389              		.loc 1 873 12 discriminator 6
 2390 0066 0123     		movs	r3, #1
 2391 0068 00E0     		b	.L137
 2392              	.L136:
 2393              		.loc 1 873 12 discriminator 7
 2394 006a 0023     		movs	r3, #0
 2395              	.L137:
 2396              		.loc 1 873 12 discriminator 9
 2397 006c D9B2     		uxtb	r1, r3
 2398 006e 40F26933 		movw	r3, #873
 2399 0072 0093     		str	r3, [sp]
 2400 0074 394B     		ldr	r3, .L141
 2401 0076 0022     		movs	r2, #0
 2402 0078 0220     		movs	r0, #2
 2403 007a FFF7FEFF 		bl	debug_message_handler
 2404 007e 0346     		mov	r3, r0
 2405 0080 002B     		cmp	r3, #0
 2406 0082 03D0     		beq	.L135
 874:libraries/zf_device/zf_device_imu963ra.c ****                     IMU_MAG_RANGE_2G   <= range
 875:libraries/zf_device/zf_device_imu963ra.c ****                 &&  IMU_MAG_RANGE_8G   >= range))
 876:libraries/zf_device/zf_device_imu963ra.c ****         {
 877:libraries/zf_device/zf_device_imu963ra.c ****             return_state = IMU963RA_ERROR_SET_MAG_RANGE_ERROR;
 2407              		.loc 1 877 26 is_stmt 1
 2408 0084 2D23     		movs	r3, #45
 2409 0086 8DF82730 		strb	r3, [sp, #39]
 878:libraries/zf_device/zf_device_imu963ra.c ****             break;
 2410              		.loc 1 878 13
 2411 008a 60E0     		b	.L139
 2412              	.L135:
 879:libraries/zf_device/zf_device_imu963ra.c ****         }
 880:libraries/zf_device/zf_device_imu963ra.c ****         if(imu_interface_assert(NULL != physical_data))
 2413              		.loc 1 880 11
 2414 008c 039B     		ldr	r3, [sp, #12]
 2415 008e 002B     		cmp	r3, #0
 2416 0090 15D1     		bne	.L138
 2417              		.loc 1 880 12 discriminator 1
 2418 0092 039B     		ldr	r3, [sp, #12]
 2419 0094 002B     		cmp	r3, #0
 2420 0096 14BF     		ite	ne
 2421 0098 0123     		movne	r3, #1
 2422 009a 0023     		moveq	r3, #0
 2423 009c DBB2     		uxtb	r3, r3
 2424 009e 1946     		mov	r1, r3
 2425 00a0 4FF45C73 		mov	r3, #880
 2426 00a4 0093     		str	r3, [sp]
 2427 00a6 2D4B     		ldr	r3, .L141
 2428 00a8 0022     		movs	r2, #0
 2429 00aa 0220     		movs	r0, #2
 2430 00ac FFF7FEFF 		bl	debug_message_handler
 2431 00b0 0346     		mov	r3, r0
 2432 00b2 002B     		cmp	r3, #0
 2433 00b4 03D0     		beq	.L138
 881:libraries/zf_device/zf_device_imu963ra.c ****         {
 882:libraries/zf_device/zf_device_imu963ra.c ****             return_state = IMU963RA_ERROR_DATA_BUFFER_NULL;
 2434              		.loc 1 882 26
 2435 00b6 2423     		movs	r3, #36
 2436 00b8 8DF82730 		strb	r3, [sp, #39]
 883:libraries/zf_device/zf_device_imu963ra.c ****             break;
 2437              		.loc 1 883 13
 2438 00bc 47E0     		b	.L139
 2439              	.L138:
 884:libraries/zf_device/zf_device_imu963ra.c ****         }
 885:libraries/zf_device/zf_device_imu963ra.c ****         const float transition_factor[2] = {12000, 3000};
 2440              		.loc 1 885 21
 2441 00be 284A     		ldr	r2, .L141+4
 2442 00c0 07AB     		add	r3, sp, #28
 2443 00c2 92E80300 		ldm	r2, {r0, r1}
 2444 00c6 83E80300 		stm	r3, {r0, r1}
 886:libraries/zf_device/zf_device_imu963ra.c ****         physical_data->x  = (float)result->x / transition_factor[range - IMU_MAG_RANGE_2G];
 2445              		.loc 1 886 42
 2446 00ca 059B     		ldr	r3, [sp, #20]
 2447 00cc B3F90030 		ldrsh	r3, [r3]
 2448              		.loc 1 886 29
 2449 00d0 07EE903A 		vmov	s15, r3	@ int
 2450 00d4 F8EEE76A 		vcvt.f32.s32	s13, s15
 2451              		.loc 1 886 72
 2452 00d8 9DF81330 		ldrb	r3, [sp, #19]	@ zero_extendqisi2
 2453 00dc 023B     		subs	r3, r3, #2
 2454              		.loc 1 886 65
 2455 00de 9B00     		lsls	r3, r3, #2
 2456 00e0 2833     		adds	r3, r3, #40
 2457 00e2 6B44     		add	r3, sp, r3
 2458 00e4 0C3B     		subs	r3, r3, #12
 2459 00e6 93ED007A 		vldr.32	s14, [r3]
 2460              		.loc 1 886 46
 2461 00ea C6EE877A 		vdiv.f32	s15, s13, s14
 2462              		.loc 1 886 27
 2463 00ee 039B     		ldr	r3, [sp, #12]
 2464 00f0 C3ED007A 		vstr.32	s15, [r3]
 887:libraries/zf_device/zf_device_imu963ra.c ****         physical_data->y  = (float)result->y / transition_factor[range - IMU_MAG_RANGE_2G];
 2465              		.loc 1 887 42
 2466 00f4 059B     		ldr	r3, [sp, #20]
 2467 00f6 B3F90230 		ldrsh	r3, [r3, #2]
 2468              		.loc 1 887 29
 2469 00fa 07EE903A 		vmov	s15, r3	@ int
 2470 00fe F8EEE76A 		vcvt.f32.s32	s13, s15
 2471              		.loc 1 887 72
 2472 0102 9DF81330 		ldrb	r3, [sp, #19]	@ zero_extendqisi2
 2473 0106 023B     		subs	r3, r3, #2
 2474              		.loc 1 887 65
 2475 0108 9B00     		lsls	r3, r3, #2
 2476 010a 2833     		adds	r3, r3, #40
 2477 010c 6B44     		add	r3, sp, r3
 2478 010e 0C3B     		subs	r3, r3, #12
 2479 0110 93ED007A 		vldr.32	s14, [r3]
 2480              		.loc 1 887 46
 2481 0114 C6EE877A 		vdiv.f32	s15, s13, s14
 2482              		.loc 1 887 27
 2483 0118 039B     		ldr	r3, [sp, #12]
 2484 011a C3ED017A 		vstr.32	s15, [r3, #4]
 888:libraries/zf_device/zf_device_imu963ra.c ****         physical_data->z  = (float)result->z / transition_factor[range - IMU_MAG_RANGE_2G];
 2485              		.loc 1 888 42
 2486 011e 059B     		ldr	r3, [sp, #20]
 2487 0120 B3F90430 		ldrsh	r3, [r3, #4]
 2488              		.loc 1 888 29
 2489 0124 07EE903A 		vmov	s15, r3	@ int
 2490 0128 F8EEE76A 		vcvt.f32.s32	s13, s15
 2491              		.loc 1 888 72
 2492 012c 9DF81330 		ldrb	r3, [sp, #19]	@ zero_extendqisi2
 2493 0130 023B     		subs	r3, r3, #2
 2494              		.loc 1 888 65
 2495 0132 9B00     		lsls	r3, r3, #2
 2496 0134 2833     		adds	r3, r3, #40
 2497 0136 6B44     		add	r3, sp, r3
 2498 0138 0C3B     		subs	r3, r3, #12
 2499 013a 93ED007A 		vldr.32	s14, [r3]
 2500              		.loc 1 888 46
 2501 013e C6EE877A 		vdiv.f32	s15, s13, s14
 2502              		.loc 1 888 27
 2503 0142 039B     		ldr	r3, [sp, #12]
 2504 0144 C3ED027A 		vstr.32	s15, [r3, #8]
 889:libraries/zf_device/zf_device_imu963ra.c **** 
 890:libraries/zf_device/zf_device_imu963ra.c ****         return_state = IMU963RA_OPERATION_DONE;
 2505              		.loc 1 890 22
 2506 0148 0023     		movs	r3, #0
 2507 014a 8DF82730 		strb	r3, [sp, #39]
 2508              	.L139:
 2509              	.LBE10:
 891:libraries/zf_device/zf_device_imu963ra.c ****     }while(0);
 892:libraries/zf_device/zf_device_imu963ra.c **** 
 893:libraries/zf_device/zf_device_imu963ra.c ****     return return_state;
 2510              		.loc 1 893 12
 2511 014e 9DF82730 		ldrb	r3, [sp, #39]	@ zero_extendqisi2
 894:libraries/zf_device/zf_device_imu963ra.c **** }
 2512              		.loc 1 894 1
 2513 0152 1846     		mov	r0, r3
 2514 0154 0BB0     		add	sp, sp, #44
 2515              		.cfi_def_cfa_offset 4
 2516              		@ sp needed
 2517 0156 5DF804FB 		ldr	pc, [sp], #4
 2518              	.L142:
 2519 015a 00BF     		.align	2
 2520              	.L141:
 2521 015c 00000000 		.word	.LC3
 2522 0160 64000000 		.word	.LC2
 2523              		.cfi_endproc
 2524              	.LFE492:
 2526              		.section	.text.imu963ra_get_acc,"ax",%progbits
 2527              		.align	1
 2528              		.p2align 4,,15
 2529              		.global	imu963ra_get_acc
 2530              		.syntax unified
 2531              		.thumb
 2532              		.thumb_func
 2534              	imu963ra_get_acc:
 2535              	.LFB493:
 895:libraries/zf_device/zf_device_imu963ra.c **** 
 896:libraries/zf_device/zf_device_imu963ra.c **** //-------------------------------------------------------------------------------------------------
 897:libraries/zf_device/zf_device_imu963ra.c **** // ÕćĮµĢ░ń«Ćõ╗ŗ     ĶÄĘÕÅ¢ IMU963RA ÕŖĀķĆ¤Õ║”Ķ«ĪµĢ░µŹ«
 898:libraries/zf_device/zf_device_imu963ra.c **** // ÕÅéµĢ░Ķ»┤µśÄ     *result         IMU963RA ńÜäµĄŗķćÅµĢ░µŹ«ń╝ōÕå▓µīćķÆł
 899:libraries/zf_device/zf_device_imu963ra.c **** // Ķ┐öÕø×ÕÅéµĢ░     uint8           µōŹõĮ£ńŖČµĆü ZF_NO_ERROR / IMU963RA_OPERATION_DONE - Õ«īµłÉ ÕģČ
 900:libraries/zf_device/zf_device_imu963ra.c **** // õĮ┐ńö©ńż║õŠŗ     imu963ra_get_acc(result);
 901:libraries/zf_device/zf_device_imu963ra.c **** // Õżćµ│©õ┐Īµü»     
 902:libraries/zf_device/zf_device_imu963ra.c **** //-------------------------------------------------------------------------------------------------
 903:libraries/zf_device/zf_device_imu963ra.c **** uint8 imu963ra_get_acc (imu963ra_measurement_data_struct *result)
 904:libraries/zf_device/zf_device_imu963ra.c **** {
 2536              		.loc 1 904 1
 2537              		.cfi_startproc
 2538              		@ args = 0, pretend = 0, frame = 16
 2539              		@ frame_needed = 0, uses_anonymous_args = 0
 2540 0000 00B5     		push	{lr}
 2541              		.cfi_def_cfa_offset 4
 2542              		.cfi_offset 14, -4
 2543 0002 87B0     		sub	sp, sp, #28
 2544              		.cfi_def_cfa_offset 32
 2545 0004 0390     		str	r0, [sp, #12]
 905:libraries/zf_device/zf_device_imu963ra.c ****     imu963ra_operation_state_enum   return_state = IMU963RA_ERROR_UNKNOW_ERROR;
 2546              		.loc 1 905 37
 2547 0006 0123     		movs	r3, #1
 2548 0008 8DF81730 		strb	r3, [sp, #23]
 906:libraries/zf_device/zf_device_imu963ra.c **** 
 907:libraries/zf_device/zf_device_imu963ra.c ****     do
 908:libraries/zf_device/zf_device_imu963ra.c ****     {
 909:libraries/zf_device/zf_device_imu963ra.c ****         if(imu_interface_assert(NULL != result))                                // µŻĆµ¤źµĢ░µŹ«ń╝ōÕ
 2549              		.loc 1 909 11
 2550 000c 039B     		ldr	r3, [sp, #12]
 2551 000e 002B     		cmp	r3, #0
 2552 0010 15D1     		bne	.L144
 2553              		.loc 1 909 12 discriminator 1
 2554 0012 039B     		ldr	r3, [sp, #12]
 2555 0014 002B     		cmp	r3, #0
 2556 0016 14BF     		ite	ne
 2557 0018 0123     		movne	r3, #1
 2558 001a 0023     		moveq	r3, #0
 2559 001c DBB2     		uxtb	r3, r3
 2560 001e 1946     		mov	r1, r3
 2561 0020 40F28D33 		movw	r3, #909
 2562 0024 0093     		str	r3, [sp]
 2563 0026 0C4B     		ldr	r3, .L147
 2564 0028 0022     		movs	r2, #0
 2565 002a 0220     		movs	r0, #2
 2566 002c FFF7FEFF 		bl	debug_message_handler
 2567 0030 0346     		mov	r3, r0
 2568 0032 002B     		cmp	r3, #0
 2569 0034 03D0     		beq	.L144
 910:libraries/zf_device/zf_device_imu963ra.c ****         {
 911:libraries/zf_device/zf_device_imu963ra.c ****             return_state = IMU963RA_ERROR_DATA_BUFFER_NULL;
 2570              		.loc 1 911 26
 2571 0036 2423     		movs	r3, #36
 2572 0038 8DF81730 		strb	r3, [sp, #23]
 912:libraries/zf_device/zf_device_imu963ra.c ****             break;
 2573              		.loc 1 912 13
 2574 003c 06E0     		b	.L145
 2575              	.L144:
 913:libraries/zf_device/zf_device_imu963ra.c ****         }
 914:libraries/zf_device/zf_device_imu963ra.c **** 
 915:libraries/zf_device/zf_device_imu963ra.c ****         return_state = imu963ra_func_get_acc(&imu_interface_default_obj, result);
 2576              		.loc 1 915 24
 2577 003e 0399     		ldr	r1, [sp, #12]
 2578 0040 0648     		ldr	r0, .L147+4
 2579 0042 FFF7FEFF 		bl	imu963ra_func_get_acc
 2580 0046 0346     		mov	r3, r0
 2581 0048 8DF81730 		strb	r3, [sp, #23]
 2582              	.L145:
 916:libraries/zf_device/zf_device_imu963ra.c ****     }while(0);
 917:libraries/zf_device/zf_device_imu963ra.c **** 
 918:libraries/zf_device/zf_device_imu963ra.c ****     return return_state;
 2583              		.loc 1 918 12
 2584 004c 9DF81730 		ldrb	r3, [sp, #23]	@ zero_extendqisi2
 919:libraries/zf_device/zf_device_imu963ra.c **** }
 2585              		.loc 1 919 1
 2586 0050 1846     		mov	r0, r3
 2587 0052 07B0     		add	sp, sp, #28
 2588              		.cfi_def_cfa_offset 4
 2589              		@ sp needed
 2590 0054 5DF804FB 		ldr	pc, [sp], #4
 2591              	.L148:
 2592              		.align	2
 2593              	.L147:
 2594 0058 00000000 		.word	.LC3
 2595 005c 00000000 		.word	imu_interface_default_obj
 2596              		.cfi_endproc
 2597              	.LFE493:
 2599              		.section	.text.imu963ra_get_gyro,"ax",%progbits
 2600              		.align	1
 2601              		.p2align 4,,15
 2602              		.global	imu963ra_get_gyro
 2603              		.syntax unified
 2604              		.thumb
 2605              		.thumb_func
 2607              	imu963ra_get_gyro:
 2608              	.LFB494:
 920:libraries/zf_device/zf_device_imu963ra.c **** 
 921:libraries/zf_device/zf_device_imu963ra.c **** //-------------------------------------------------------------------------------------------------
 922:libraries/zf_device/zf_device_imu963ra.c **** // ÕćĮµĢ░ń«Ćõ╗ŗ     ĶÄĘÕÅ¢ IMU963RA ķÖĆĶ×║õ╗¬µĢ░µŹ«
 923:libraries/zf_device/zf_device_imu963ra.c **** // ÕÅéµĢ░Ķ»┤µśÄ     *result         IMU963RA ńÜäµĄŗķćÅµĢ░µŹ«ń╝ōÕå▓µīćķÆł
 924:libraries/zf_device/zf_device_imu963ra.c **** // Ķ┐öÕø×ÕÅéµĢ░     uint8           µōŹõĮ£ńŖČµĆü ZF_NO_ERROR / IMU963RA_OPERATION_DONE - Õ«īµłÉ ÕģČ
 925:libraries/zf_device/zf_device_imu963ra.c **** // õĮ┐ńö©ńż║õŠŗ     imu963ra_get_gyro(result);
 926:libraries/zf_device/zf_device_imu963ra.c **** // Õżćµ│©õ┐Īµü»     
 927:libraries/zf_device/zf_device_imu963ra.c **** //-------------------------------------------------------------------------------------------------
 928:libraries/zf_device/zf_device_imu963ra.c **** uint8 imu963ra_get_gyro (imu963ra_measurement_data_struct *result)
 929:libraries/zf_device/zf_device_imu963ra.c **** {
 2609              		.loc 1 929 1
 2610              		.cfi_startproc
 2611              		@ args = 0, pretend = 0, frame = 16
 2612              		@ frame_needed = 0, uses_anonymous_args = 0
 2613 0000 00B5     		push	{lr}
 2614              		.cfi_def_cfa_offset 4
 2615              		.cfi_offset 14, -4
 2616 0002 87B0     		sub	sp, sp, #28
 2617              		.cfi_def_cfa_offset 32
 2618 0004 0390     		str	r0, [sp, #12]
 930:libraries/zf_device/zf_device_imu963ra.c ****     imu963ra_operation_state_enum   return_state = IMU963RA_ERROR_UNKNOW_ERROR;
 2619              		.loc 1 930 37
 2620 0006 0123     		movs	r3, #1
 2621 0008 8DF81730 		strb	r3, [sp, #23]
 931:libraries/zf_device/zf_device_imu963ra.c **** 
 932:libraries/zf_device/zf_device_imu963ra.c ****     do
 933:libraries/zf_device/zf_device_imu963ra.c ****     {
 934:libraries/zf_device/zf_device_imu963ra.c ****         if(imu_interface_assert(NULL != result))                                // µŻĆµ¤źµĢ░µŹ«ń╝ōÕ
 2622              		.loc 1 934 11
 2623 000c 039B     		ldr	r3, [sp, #12]
 2624 000e 002B     		cmp	r3, #0
 2625 0010 15D1     		bne	.L150
 2626              		.loc 1 934 12 discriminator 1
 2627 0012 039B     		ldr	r3, [sp, #12]
 2628 0014 002B     		cmp	r3, #0
 2629 0016 14BF     		ite	ne
 2630 0018 0123     		movne	r3, #1
 2631 001a 0023     		moveq	r3, #0
 2632 001c DBB2     		uxtb	r3, r3
 2633 001e 1946     		mov	r1, r3
 2634 0020 40F2A633 		movw	r3, #934
 2635 0024 0093     		str	r3, [sp]
 2636 0026 0C4B     		ldr	r3, .L153
 2637 0028 0022     		movs	r2, #0
 2638 002a 0220     		movs	r0, #2
 2639 002c FFF7FEFF 		bl	debug_message_handler
 2640 0030 0346     		mov	r3, r0
 2641 0032 002B     		cmp	r3, #0
 2642 0034 03D0     		beq	.L150
 935:libraries/zf_device/zf_device_imu963ra.c ****         {
 936:libraries/zf_device/zf_device_imu963ra.c ****             return_state = IMU963RA_ERROR_DATA_BUFFER_NULL;
 2643              		.loc 1 936 26
 2644 0036 2423     		movs	r3, #36
 2645 0038 8DF81730 		strb	r3, [sp, #23]
 937:libraries/zf_device/zf_device_imu963ra.c ****             break;
 2646              		.loc 1 937 13
 2647 003c 06E0     		b	.L151
 2648              	.L150:
 938:libraries/zf_device/zf_device_imu963ra.c ****         }
 939:libraries/zf_device/zf_device_imu963ra.c **** 
 940:libraries/zf_device/zf_device_imu963ra.c ****         return_state = imu963ra_func_get_gyro(&imu_interface_default_obj, result);
 2649              		.loc 1 940 24
 2650 003e 0399     		ldr	r1, [sp, #12]
 2651 0040 0648     		ldr	r0, .L153+4
 2652 0042 FFF7FEFF 		bl	imu963ra_func_get_gyro
 2653 0046 0346     		mov	r3, r0
 2654 0048 8DF81730 		strb	r3, [sp, #23]
 2655              	.L151:
 941:libraries/zf_device/zf_device_imu963ra.c ****     }while(0);
 942:libraries/zf_device/zf_device_imu963ra.c **** 
 943:libraries/zf_device/zf_device_imu963ra.c ****     return return_state;
 2656              		.loc 1 943 12
 2657 004c 9DF81730 		ldrb	r3, [sp, #23]	@ zero_extendqisi2
 944:libraries/zf_device/zf_device_imu963ra.c **** }
 2658              		.loc 1 944 1
 2659 0050 1846     		mov	r0, r3
 2660 0052 07B0     		add	sp, sp, #28
 2661              		.cfi_def_cfa_offset 4
 2662              		@ sp needed
 2663 0054 5DF804FB 		ldr	pc, [sp], #4
 2664              	.L154:
 2665              		.align	2
 2666              	.L153:
 2667 0058 00000000 		.word	.LC3
 2668 005c 00000000 		.word	imu_interface_default_obj
 2669              		.cfi_endproc
 2670              	.LFE494:
 2672              		.section	.text.imu963ra_get_mag,"ax",%progbits
 2673              		.align	1
 2674              		.p2align 4,,15
 2675              		.global	imu963ra_get_mag
 2676              		.syntax unified
 2677              		.thumb
 2678              		.thumb_func
 2680              	imu963ra_get_mag:
 2681              	.LFB495:
 945:libraries/zf_device/zf_device_imu963ra.c **** 
 946:libraries/zf_device/zf_device_imu963ra.c **** //-------------------------------------------------------------------------------------------------
 947:libraries/zf_device/zf_device_imu963ra.c **** // ÕćĮµĢ░ń«Ćõ╗ŗ     ĶÄĘÕÅ¢ IMU963RA Õ£░ńŻüĶ«ĪµĢ░µŹ«
 948:libraries/zf_device/zf_device_imu963ra.c **** // ÕÅéµĢ░Ķ»┤µśÄ     *result         IMU963RA ńÜäµĄŗķćÅµĢ░µŹ«ń╝ōÕå▓µīćķÆł
 949:libraries/zf_device/zf_device_imu963ra.c **** // Ķ┐öÕø×ÕÅéµĢ░     uint8           µōŹõĮ£ńŖČµĆü ZF_NO_ERROR / IMU963RA_OPERATION_DONE - Õ«īµłÉ ÕģČ
 950:libraries/zf_device/zf_device_imu963ra.c **** // õĮ┐ńö©ńż║õŠŗ     imu963ra_get_mag(result);
 951:libraries/zf_device/zf_device_imu963ra.c **** // Õżćµ│©õ┐Īµü»     
 952:libraries/zf_device/zf_device_imu963ra.c **** //-------------------------------------------------------------------------------------------------
 953:libraries/zf_device/zf_device_imu963ra.c **** uint8 imu963ra_get_mag (imu963ra_measurement_data_struct *result)
 954:libraries/zf_device/zf_device_imu963ra.c **** {
 2682              		.loc 1 954 1
 2683              		.cfi_startproc
 2684              		@ args = 0, pretend = 0, frame = 16
 2685              		@ frame_needed = 0, uses_anonymous_args = 0
 2686 0000 00B5     		push	{lr}
 2687              		.cfi_def_cfa_offset 4
 2688              		.cfi_offset 14, -4
 2689 0002 87B0     		sub	sp, sp, #28
 2690              		.cfi_def_cfa_offset 32
 2691 0004 0390     		str	r0, [sp, #12]
 955:libraries/zf_device/zf_device_imu963ra.c ****     imu963ra_operation_state_enum   return_state = IMU963RA_ERROR_UNKNOW_ERROR;
 2692              		.loc 1 955 37
 2693 0006 0123     		movs	r3, #1
 2694 0008 8DF81730 		strb	r3, [sp, #23]
 956:libraries/zf_device/zf_device_imu963ra.c **** 
 957:libraries/zf_device/zf_device_imu963ra.c ****     do
 958:libraries/zf_device/zf_device_imu963ra.c ****     {
 959:libraries/zf_device/zf_device_imu963ra.c ****         if(imu_interface_assert(NULL != result))                                // µŻĆµ¤źµĢ░µŹ«ń╝ōÕ
 2695              		.loc 1 959 11
 2696 000c 039B     		ldr	r3, [sp, #12]
 2697 000e 002B     		cmp	r3, #0
 2698 0010 15D1     		bne	.L156
 2699              		.loc 1 959 12 discriminator 1
 2700 0012 039B     		ldr	r3, [sp, #12]
 2701 0014 002B     		cmp	r3, #0
 2702 0016 14BF     		ite	ne
 2703 0018 0123     		movne	r3, #1
 2704 001a 0023     		moveq	r3, #0
 2705 001c DBB2     		uxtb	r3, r3
 2706 001e 1946     		mov	r1, r3
 2707 0020 40F2BF33 		movw	r3, #959
 2708 0024 0093     		str	r3, [sp]
 2709 0026 0C4B     		ldr	r3, .L159
 2710 0028 0022     		movs	r2, #0
 2711 002a 0220     		movs	r0, #2
 2712 002c FFF7FEFF 		bl	debug_message_handler
 2713 0030 0346     		mov	r3, r0
 2714 0032 002B     		cmp	r3, #0
 2715 0034 03D0     		beq	.L156
 960:libraries/zf_device/zf_device_imu963ra.c ****         {
 961:libraries/zf_device/zf_device_imu963ra.c ****             return_state = IMU963RA_ERROR_DATA_BUFFER_NULL;
 2716              		.loc 1 961 26
 2717 0036 2423     		movs	r3, #36
 2718 0038 8DF81730 		strb	r3, [sp, #23]
 962:libraries/zf_device/zf_device_imu963ra.c ****             break;
 2719              		.loc 1 962 13
 2720 003c 06E0     		b	.L157
 2721              	.L156:
 963:libraries/zf_device/zf_device_imu963ra.c ****         }
 964:libraries/zf_device/zf_device_imu963ra.c **** 
 965:libraries/zf_device/zf_device_imu963ra.c ****         return_state = imu963ra_func_get_mag(&imu_interface_default_obj, result);
 2722              		.loc 1 965 24
 2723 003e 0399     		ldr	r1, [sp, #12]
 2724 0040 0648     		ldr	r0, .L159+4
 2725 0042 FFF7FEFF 		bl	imu963ra_func_get_mag
 2726 0046 0346     		mov	r3, r0
 2727 0048 8DF81730 		strb	r3, [sp, #23]
 2728              	.L157:
 966:libraries/zf_device/zf_device_imu963ra.c ****     }while(0);
 967:libraries/zf_device/zf_device_imu963ra.c **** 
 968:libraries/zf_device/zf_device_imu963ra.c ****     return return_state;
 2729              		.loc 1 968 12
 2730 004c 9DF81730 		ldrb	r3, [sp, #23]	@ zero_extendqisi2
 969:libraries/zf_device/zf_device_imu963ra.c **** }
 2731              		.loc 1 969 1
 2732 0050 1846     		mov	r0, r3
 2733 0052 07B0     		add	sp, sp, #28
 2734              		.cfi_def_cfa_offset 4
 2735              		@ sp needed
 2736 0054 5DF804FB 		ldr	pc, [sp], #4
 2737              	.L160:
 2738              		.align	2
 2739              	.L159:
 2740 0058 00000000 		.word	.LC3
 2741 005c 00000000 		.word	imu_interface_default_obj
 2742              		.cfi_endproc
 2743              	.LFE495:
 2745              		.section	.text.imu963ra_set_config,"ax",%progbits
 2746              		.align	1
 2747              		.p2align 4,,15
 2748              		.global	imu963ra_set_config
 2749              		.syntax unified
 2750              		.thumb
 2751              		.thumb_func
 2753              	imu963ra_set_config:
 2754              	.LFB496:
 970:libraries/zf_device/zf_device_imu963ra.c **** 
 971:libraries/zf_device/zf_device_imu963ra.c **** //-------------------------------------------------------------------------------------------------
 972:libraries/zf_device/zf_device_imu963ra.c **** // ÕćĮµĢ░ń«Ćõ╗ŗ     IMU963RA ķģŹńĮ«µ©ĪÕØŚÕĘźõĮ£ÕÅéµĢ░
 973:libraries/zf_device/zf_device_imu963ra.c **** // ÕÅéµĢ░Ķ»┤µśÄ     item            IMU963RA ķģŹńĮ«ÕÅéńģ¦ zf_device_imu_interface.h õĖŁ imu_config_
 974:libraries/zf_device/zf_device_imu963ra.c **** // Ķ┐öÕø×ÕÅéµĢ░     uint8           µōŹõĮ£ńŖČµĆü ZF_NO_ERROR / IMU963RA_OPERATION_DONE - Õ«īµłÉ ÕģČ
 975:libraries/zf_device/zf_device_imu963ra.c **** // õĮ┐ńö©ńż║õŠŗ     imu963ra_set_config(item);
 976:libraries/zf_device/zf_device_imu963ra.c **** // Õżćµ│©õ┐Īµü»
 977:libraries/zf_device/zf_device_imu963ra.c **** //-------------------------------------------------------------------------------------------------
 978:libraries/zf_device/zf_device_imu963ra.c **** uint8 imu963ra_set_config (imu_config_item_enum item)
 979:libraries/zf_device/zf_device_imu963ra.c **** {
 2755              		.loc 1 979 1
 2756              		.cfi_startproc
 2757              		@ args = 0, pretend = 0, frame = 8
 2758              		@ frame_needed = 0, uses_anonymous_args = 0
 2759 0000 00B5     		push	{lr}
 2760              		.cfi_def_cfa_offset 4
 2761              		.cfi_offset 14, -4
 2762 0002 83B0     		sub	sp, sp, #12
 2763              		.cfi_def_cfa_offset 16
 2764 0004 0346     		mov	r3, r0
 2765 0006 8DF80730 		strb	r3, [sp, #7]
 980:libraries/zf_device/zf_device_imu963ra.c ****     return imu963ra_func_set_config(&imu_interface_default_obj, item);
 2766              		.loc 1 980 12
 2767 000a 9DF80730 		ldrb	r3, [sp, #7]	@ zero_extendqisi2
 2768 000e 1946     		mov	r1, r3
 2769 0010 0348     		ldr	r0, .L163
 2770 0012 FFF7FEFF 		bl	imu963ra_func_set_config
 2771 0016 0346     		mov	r3, r0
 981:libraries/zf_device/zf_device_imu963ra.c **** }
 2772              		.loc 1 981 1
 2773 0018 1846     		mov	r0, r3
 2774 001a 03B0     		add	sp, sp, #12
 2775              		.cfi_def_cfa_offset 4
 2776              		@ sp needed
 2777 001c 5DF804FB 		ldr	pc, [sp], #4
 2778              	.L164:
 2779              		.align	2
 2780              	.L163:
 2781 0020 00000000 		.word	imu_interface_default_obj
 2782              		.cfi_endproc
 2783              	.LFE496:
 2785              		.section	.text.imu963ra_init,"ax",%progbits
 2786              		.align	1
 2787              		.p2align 4,,15
 2788              		.global	imu963ra_init
 2789              		.syntax unified
 2790              		.thumb
 2791              		.thumb_func
 2793              	imu963ra_init:
 2794              	.LFB497:
 982:libraries/zf_device/zf_device_imu963ra.c **** 
 983:libraries/zf_device/zf_device_imu963ra.c **** //-------------------------------------------------------------------------------------------------
 984:libraries/zf_device/zf_device_imu963ra.c **** // ÕćĮµĢ░ń«Ćõ╗ŗ     ÕłØÕ¦ŗÕī¢ IMU963RA
 985:libraries/zf_device/zf_device_imu963ra.c **** // ÕÅéµĢ░Ķ»┤µśÄ     void
 986:libraries/zf_device/zf_device_imu963ra.c **** // Ķ┐öÕø×ÕÅéµĢ░     uint8           µōŹõĮ£ńŖČµĆü ZF_NO_ERROR / IMU963RA_OPERATION_DONE - Õ«īµłÉ ÕģČ
 987:libraries/zf_device/zf_device_imu963ra.c **** // õĮ┐ńö©ńż║õŠŗ     imu963ra_init();
 988:libraries/zf_device/zf_device_imu963ra.c **** // Õżćµ│©õ┐Īµü»
 989:libraries/zf_device/zf_device_imu963ra.c **** //-------------------------------------------------------------------------------------------------
 990:libraries/zf_device/zf_device_imu963ra.c **** uint8 imu963ra_init (void)
 991:libraries/zf_device/zf_device_imu963ra.c **** {
 2795              		.loc 1 991 1
 2796              		.cfi_startproc
 2797              		@ args = 0, pretend = 0, frame = 8
 2798              		@ frame_needed = 0, uses_anonymous_args = 0
 2799 0000 00B5     		push	{lr}
 2800              		.cfi_def_cfa_offset 4
 2801              		.cfi_offset 14, -4
 2802 0002 87B0     		sub	sp, sp, #28
 2803              		.cfi_def_cfa_offset 32
 992:libraries/zf_device/zf_device_imu963ra.c ****     imu963ra_operation_state_enum   return_state = IMU963RA_ERROR_UNKNOW_ERROR;
 2804              		.loc 1 992 37
 2805 0004 0123     		movs	r3, #1
 2806 0006 8DF81730 		strb	r3, [sp, #23]
 993:libraries/zf_device/zf_device_imu963ra.c **** 
 994:libraries/zf_device/zf_device_imu963ra.c ****     uint8 init_step = 0x00;
 2807              		.loc 1 994 11
 2808 000a 0023     		movs	r3, #0
 2809 000c 8DF81630 		strb	r3, [sp, #22]
 995:libraries/zf_device/zf_device_imu963ra.c **** 
 996:libraries/zf_device/zf_device_imu963ra.c ****     do
 997:libraries/zf_device/zf_device_imu963ra.c ****     {
 998:libraries/zf_device/zf_device_imu963ra.c ****         if(imu_interface_assert(!imu_interface_spi_default_init(&imu_interface_default_obj, SPI_MOD
 2810              		.loc 1 998 12
 2811 0010 6723     		movs	r3, #103
 2812 0012 0393     		str	r3, [sp, #12]
 2813 0014 2F4B     		ldr	r3, .L171
 2814 0016 0293     		str	r3, [sp, #8]
 2815 0018 2F4B     		ldr	r3, .L171+4
 2816 001a 0193     		str	r3, [sp, #4]
 2817 001c 2F4B     		ldr	r3, .L171+8
 2818 001e 0093     		str	r3, [sp]
 2819 0020 2F4B     		ldr	r3, .L171+12
 2820 0022 0022     		movs	r2, #0
 2821 0024 0221     		movs	r1, #2
 2822 0026 2F48     		ldr	r0, .L171+16
 2823 0028 FFF7FEFF 		bl	imu_interface_spi_init
 2824 002c 0346     		mov	r3, r0
 2825              		.loc 1 998 11
 2826 002e 002B     		cmp	r3, #0
 2827 0030 23D0     		beq	.L166
 2828              		.loc 1 998 12 discriminator 1
 2829 0032 6723     		movs	r3, #103
 2830 0034 0393     		str	r3, [sp, #12]
 2831 0036 274B     		ldr	r3, .L171
 2832 0038 0293     		str	r3, [sp, #8]
 2833 003a 274B     		ldr	r3, .L171+4
 2834 003c 0193     		str	r3, [sp, #4]
 2835 003e 274B     		ldr	r3, .L171+8
 2836 0040 0093     		str	r3, [sp]
 2837 0042 274B     		ldr	r3, .L171+12
 2838 0044 0022     		movs	r2, #0
 2839 0046 0221     		movs	r1, #2
 2840 0048 2648     		ldr	r0, .L171+16
 2841 004a FFF7FEFF 		bl	imu_interface_spi_init
 2842 004e 0346     		mov	r3, r0
 2843 0050 002B     		cmp	r3, #0
 2844 0052 0CBF     		ite	eq
 2845 0054 0123     		moveq	r3, #1
 2846 0056 0023     		movne	r3, #0
 2847 0058 DBB2     		uxtb	r3, r3
 2848 005a 1946     		mov	r1, r3
 2849 005c 40F2E633 		movw	r3, #998
 2850 0060 0093     		str	r3, [sp]
 2851 0062 214B     		ldr	r3, .L171+20
 2852 0064 0022     		movs	r2, #0
 2853 0066 0220     		movs	r0, #2
 2854 0068 FFF7FEFF 		bl	debug_message_handler
 2855 006c 0346     		mov	r3, r0
 2856 006e 002B     		cmp	r3, #0
 2857 0070 03D0     		beq	.L166
 999:libraries/zf_device/zf_device_imu963ra.c ****         {
1000:libraries/zf_device/zf_device_imu963ra.c ****             return_state = IMU963RA_ERROR_INTERFACE_OCCUPIED;
 2858              		.loc 1 1000 26
 2859 0072 2023     		movs	r3, #32
 2860 0074 8DF81730 		strb	r3, [sp, #23]
1001:libraries/zf_device/zf_device_imu963ra.c ****             break;
 2861              		.loc 1 1001 13
 2862 0078 18E0     		b	.L167
 2863              	.L166:
1002:libraries/zf_device/zf_device_imu963ra.c ****         }
1003:libraries/zf_device/zf_device_imu963ra.c ****         init_step |= 0x01;
 2864              		.loc 1 1003 19
 2865 007a 9DF81630 		ldrb	r3, [sp, #22]
 2866 007e 43F00103 		orr	r3, r3, #1
 2867 0082 8DF81630 		strb	r3, [sp, #22]
1004:libraries/zf_device/zf_device_imu963ra.c **** 
1005:libraries/zf_device/zf_device_imu963ra.c ****         imu_interface_delay_ms(20);                                                 // ńŁēÕŠģĶ«ŠÕżć
 2868              		.loc 1 1005 9
 2869 0086 1420     		movs	r0, #20
 2870 0088 FFF7FEFF 		bl	zf_delay_ms
1006:libraries/zf_device/zf_device_imu963ra.c **** 
1007:libraries/zf_device/zf_device_imu963ra.c ****         if(imu963ra_func_ckeck_id(&imu_interface_default_obj))
 2871              		.loc 1 1007 12
 2872 008c 1548     		ldr	r0, .L171+16
 2873 008e FFF7FEFF 		bl	imu963ra_func_ckeck_id
 2874 0092 0346     		mov	r3, r0
 2875              		.loc 1 1007 11
 2876 0094 002B     		cmp	r3, #0
 2877 0096 03D0     		beq	.L168
1008:libraries/zf_device/zf_device_imu963ra.c ****         {
1009:libraries/zf_device/zf_device_imu963ra.c ****             // Õ”éµ×£ń©ŗÕ║ÅÕ£©ĶŠōÕć║õ║åµ¢ŁĶ©Ćõ┐Īµü» Õ╣ČõĖöµÅÉńż║Õć║ķöÖõĮŹńĮ«Õ£©Ķ┐Öķćī
1010:libraries/zf_device/zf_device_imu963ra.c ****             // ķéŻõ╣łÕ░▒µś» IMU963RA Ķć¬µŻĆÕć║ķöÖÕ╣ČĶČģµŚČķĆĆÕć║õ║å
1011:libraries/zf_device/zf_device_imu963ra.c ****             // µŻĆµ¤źõĖĆõĖŗµÄźń║┐µ£ēµ▓Īµ£ēķŚ«ķóś Õ”éµ×£µ▓ĪķŚ«ķóśÕÅ»ĶāĮÕ░▒µś»ÕØÅõ║å
1012:libraries/zf_device/zf_device_imu963ra.c ****             return_state = IMU963RA_ERROR_SELF_CHECK_ERROR;
 2878              		.loc 1 1012 26
 2879 0098 2623     		movs	r3, #38
 2880 009a 8DF81730 		strb	r3, [sp, #23]
1013:libraries/zf_device/zf_device_imu963ra.c ****             break;
 2881              		.loc 1 1013 13
 2882 009e 05E0     		b	.L167
 2883              	.L168:
1014:libraries/zf_device/zf_device_imu963ra.c ****         }
1015:libraries/zf_device/zf_device_imu963ra.c **** 
1016:libraries/zf_device/zf_device_imu963ra.c ****         return_state = imu963ra_func_init(&imu_interface_default_obj);
 2884              		.loc 1 1016 24
 2885 00a0 1048     		ldr	r0, .L171+16
 2886 00a2 FFF7FEFF 		bl	imu963ra_func_init
 2887 00a6 0346     		mov	r3, r0
 2888 00a8 8DF81730 		strb	r3, [sp, #23]
 2889              	.L167:
1017:libraries/zf_device/zf_device_imu963ra.c ****     }while(0);
1018:libraries/zf_device/zf_device_imu963ra.c **** 
1019:libraries/zf_device/zf_device_imu963ra.c ****     if(return_state && (init_step & 0x01))
 2890              		.loc 1 1019 7
 2891 00ac 9DF81730 		ldrb	r3, [sp, #23]	@ zero_extendqisi2
 2892 00b0 002B     		cmp	r3, #0
 2893 00b2 08D0     		beq	.L169
 2894              		.loc 1 1019 35 discriminator 1
 2895 00b4 9DF81630 		ldrb	r3, [sp, #22]	@ zero_extendqisi2
 2896 00b8 03F00103 		and	r3, r3, #1
 2897              		.loc 1 1019 21 discriminator 1
 2898 00bc 002B     		cmp	r3, #0
 2899 00be 02D0     		beq	.L169
1020:libraries/zf_device/zf_device_imu963ra.c ****     {
1021:libraries/zf_device/zf_device_imu963ra.c ****         imu_interface_deinit(&imu_interface_default_obj);                       // ķéŻõ╣łÕ░▒ķ£ĆĶ”üÕ
 2900              		.loc 1 1021 9
 2901 00c0 0848     		ldr	r0, .L171+16
 2902 00c2 FFF7FEFF 		bl	imu_interface_deinit
 2903              	.L169:
1022:libraries/zf_device/zf_device_imu963ra.c ****     }
1023:libraries/zf_device/zf_device_imu963ra.c **** 
1024:libraries/zf_device/zf_device_imu963ra.c ****     return return_state;
 2904              		.loc 1 1024 12
 2905 00c6 9DF81730 		ldrb	r3, [sp, #23]	@ zero_extendqisi2
1025:libraries/zf_device/zf_device_imu963ra.c **** }
 2906              		.loc 1 1025 1
 2907 00ca 1846     		mov	r0, r3
 2908 00cc 07B0     		add	sp, sp, #28
 2909              		.cfi_def_cfa_offset 4
 2910              		@ sp needed
 2911 00ce 5DF804FB 		ldr	pc, [sp], #4
 2912              	.L172:
 2913 00d2 00BF     		.align	2
 2914              	.L171:
 2915 00d4 6B500200 		.word	151659
 2916 00d8 6C500200 		.word	151660
 2917 00dc 6A500200 		.word	151658
 2918 00e0 80969800 		.word	10000000
 2919 00e4 00000000 		.word	imu_interface_default_obj
 2920 00e8 00000000 		.word	.LC3
 2921              		.cfi_endproc
 2922              	.LFE497:
 2924              		.text
 2925              	.Letext0:
 2926              		.file 2 "libraries/zf_common/zf_common_typedef.h"
 2927              		.file 3 "C:/StellarStudio-7.0/SDKS/StellarESDK-1.7.0/Modules/Platform/MCU/include/sr5e1/sr5e1xx.h"
 2928              		.file 4 "libraries/zf_driver/zf_driver_gpio.h"
 2929              		.file 5 "libraries/zf_driver/zf_driver_adc.h"
 2930              		.file 6 "libraries/zf_driver/zf_driver_can.h"
 2931              		.file 7 "libraries/zf_driver/zf_driver_encoder.h"
 2932              		.file 8 "libraries/zf_driver/zf_driver_exti.h"
 2933              		.file 9 "libraries/zf_driver/zf_driver_hrtim.h"
 2934              		.file 10 "libraries/zf_driver/zf_driver_pwm.h"
 2935              		.file 11 "libraries/zf_driver/zf_driver_soft_iic.h"
 2936              		.file 12 "libraries/zf_driver/zf_driver_spi.h"
 2937              		.file 13 "libraries/zf_driver/zf_driver_uart.h"
 2938              		.file 14 "libraries/zf_device/zf_device_imu_interface.h"
 2939              		.file 15 "libraries/zf_device/zf_device_imu963ra.h"